ccopy_reg
_reconstructor
p0
(cdebian_linux.config
ConfigCore
p1
c__builtin__
dict
p2
(dp3
(S'image'
p4
S'amd64'
p5
tp6
(dp7
S'configs'
p8
(lp9
sS'bootloaders'
p10
(lp11
S'grub-pc'
p12
aS'extlinux'
p13
aS'lilo'
p14
ass(S'description'
p15
S'armel'
p16
NS'versatile'
p17
tp18
(dp19
S'hardware'
p20
S'Versatile'
p21
sS'hardware-long'
p22
S'Versatile systems (PB, AB, Qemu)'
p23
ss(S'description'
p24
S'mips'
p25
NS'sb1-bcm91250a'
p26
tp27
(dp28
S'hardware'
p29
S'BCM91250A'
p30
sS'hardware-long'
p31
S'Broadcom BCM91250A systems (aka SWARM)'
p32
ss(S'description'
p33
S'm68k'
p34
NS'm68k'
p35
tp36
(dp37
S'hardware'
p38
S'Motorola MC68020+ family'
p39
ss(S'base'
p40
g5
S'none'
p41
tp42
(dp43
S'flavours'
p44
(lp45
S'amd64'
p46
ass(S'image'
p47
S'ia64'
p48
tp49
(dp50
S'suggests'
p51
S'fdutils'
p52
sS'bootloaders'
p53
(lp54
S'elilo'
p55
ass(S'image'
p56
g16
NS'ixp4xx'
p57
tp58
(dp59
S'check-size'
p60
S'1441760'
p61
sS'configs'
p62
(lp63
S'armel/config-reduced'
p64
aS'armel/config.ixp4xx'
p65
ass(S'version'
p66
tp67
(dp68
S'abiname'
p69
S'3.11-2'
p70
sS'source'
p71
V3.11.8-1blankon1
p72
sS'upstream'
p73
S'3.11'
p74
ss(S'description'
p75
g5
g41
S'amd64'
p76
tp77
(dp78
S'parts'
p79
(lp80
S'xen'
p81
ass(S'description'
p82
S'mipsel'
p83
NS'sb1-bcm91250a'
p84
tp85
(dp86
S'hardware'
p87
S'BCM91250A'
p88
sS'hardware-long'
p89
S'Broadcom BCM91250A systems (aka SWARM)'
p90
ss(S'description'
p91
S'sparc'
p92
NS'sparc64-smp'
p93
tp94
(dp95
S'hardware'
p96
S'multiprocessor 64-bit UltraSPARC'
p97
ss(S'base'
p98
S'ppc64'
p99
S'none'
p100
tp101
(dp102
S'implicit-flavour'
p103
I01
sS'flavours'
p104
(lp105
S'powerpc64'
p106
ass(S'description'
p107
S'alpha'
p108
NS'alpha-generic'
p109
tp110
(dp111
S'hardware'
p112
S'Alpha'
p113
sS'hardware-long'
p114
S'DEC Alpha systems with extended kernel start address (Wildfire, Titan, Marvel)'
p115
ss(S'description'
p116
NS'rt'
p117
tp118
(dp119
S'part-long-rt'
p120
S'This kernel includes the PREEMPT_RT realtime patch set.'
p121
sS'parts'
p122
(lp123
S'rt'
p124
asS'part-short-rt'
p125
S'PREEMPT_RT'
p126
ss(S'base'
p127
g108
tp128
(dp129
S'kernel-arch'
p130
S'alpha'
p131
sS'featuresets'
p132
(lp133
g100
ass(g98
S'armhf'
p134
g100
tp135
(dp136
g103
I01
sg104
(lp137
S'armmp'
p138
aS'armmp-lpae'
p139
ass(S'description'
p140
S'sh4'
p141
NS'sh7785lcr'
p142
tp143
(dp144
S'hardware'
p145
S'sh7785lcr'
p146
sS'hardware-long'
p147
S'Renesas SH7785 reference board'
p148
ss(S'base'
p149
S'i386'
p150
S'rt'
p151
tp152
(dp153
S'flavours'
p154
(lp155
S'686-pae'
p156
ass(g98
S'powerpc'
p157
g100
tp158
(dp159
g103
I01
sg104
(lp160
S'powerpc'
p161
aS'powerpc-smp'
p162
aS'powerpc64'
p163
ass(S'image'
p164
g157
tp165
(dp166
S'suggests'
p167
S'mkvmlinuz'
p168
ss(S'build'
p169
g16
NS'kirkwood'
p170
tp171
(dp172
S'image-file'
p173
S'arch/arm/boot/zImage'
p174
ss(S'base'
p175
g5
S'rt'
p176
tp177
(dp178
S'flavours'
p179
(lp180
S'amd64'
p181
ass(S'description'
p182
g134
NS'armmp-lpae'
p183
tp184
(dp185
S'hardware'
p186
S'ARMv7 multiplatform compatible SoCs supporting LPAE'
p187
sS'hardware-long'
p188
S'ARMv7 multiplatform kernel supporting LPAE'
p189
ss(S'description'
p190
S'hppa'
p191
NS'parisc64'
p192
tp193
(dp194
S'hardware'
p195
S'64-bit PA-RISC'
p196
ss(S'description'
p197
g150
S'none'
p198
S'amd64'
p199
tp200
(dp201
S'parts'
p202
(lp203
S'xen'
p204
ass(S'build'
p205
g134
NS'armmp'
p206
tp207
(dp208
S'image-file'
p209
S'arch/arm/boot/zImage'
p210
ss(S'base'
p211
S'arm64'
p212
tp213
(dp214
S'kernel-arch'
p215
S'arm64'
p216
sS'featuresets'
p217
(lp218
ss(S'base'
p219
g150
tp220
(dp221
S'kernel-arch'
p222
S'x86'
p223
sS'featuresets'
p224
(lp225
S'none'
p226
aS'rt'
p227
ass(S'base'
p228
g83
tp229
(dp230
S'kernel-arch'
p231
S'mips'
p232
sg132
(lp233
g100
ass(S'build'
p234
g141
NS'sh7751r'
p235
tp236
(dp237
S'image-file'
p238
S'arch/sh/boot/zImage'
p239
ss(S'description'
p240
g25
NS'sb1a-bcm91480b'
p241
tp242
(dp243
S'hardware'
p244
S'BCM91480B'
p245
sS'hardware-long'
p246
S'Broadcom BCM91480B systems (aka BigSur)'
p247
ss(g98
g83
g100
tp248
(dp249
g103
I01
sg104
(lp250
S'r5k-cobalt'
p251
aS'sb1-bcm91250a'
p252
aS'sb1a-bcm91480b'
p253
aS'4kc-malta'
p254
aS'5kc-malta'
p255
aS'loongson-2f'
p256
ass(S'build'
p257
S's390x'
p258
NS's390x'
p259
tp260
(dp261
S'debug-info'
p262
I01
ss(S'description'
p263
S'powerpcspe'
p264
tp265
(dp266
S'hardware'
p267
S'32-bit PowerPC with SPE (instead of AltiVec) with SMP support'
p268
ss(S'relations'
p269
tp270
(dp271
S'gcc-4.8'
p272
S'gcc-4.8'
p273
sS'initramfs-fallback'
p274
S'linux-initramfs-tool'
p275
sS'gcc-4.7'
p276
S'gcc-4.7'
p277
sS'gcc-4.6'
p278
S'gcc-4.6'
p279
sS'gcc-4.4'
p280
S'gcc-4.4'
p281
sS'initramfs-tools'
p282
S'initramfs-tools (>= 0.110~)'
p283
ss(S'description'
p284
g48
NS'mckinley'
p285
tp286
(dp287
S'hardware'
p288
S'Itanium II'
p289
ss(S'description'
p290
g16
NS'iop32x'
p291
tp292
(dp293
S'hardware'
p294
S'IOP32x'
p295
sS'hardware-long'
p296
S'IOP32x based systems (Thecus N2100, etc)'
p297
ss(S'description'
p298
g16
NS'ixp4xx'
p299
tp300
(dp301
S'hardware'
p302
S'IXP4xx'
p303
sS'hardware-long'
p304
S'IXP4xx based systems (Linksys NSLU2, etc)'
p305
ss(g98
g141
g100
tp306
(dp307
g103
I01
sg104
(lp308
S'sh7751r'
p309
aS'sh7785lcr'
p310
ass(S'description'
p311
g25
NS'5kc-malta'
p312
tp313
(dp314
S'hardware'
p315
S'MIPS Malta (64-bit)'
p316
sS'hardware-long'
p317
S'MIPS Malta boards (64-bit)'
p318
ss(S'description'
p319
g191
NS'parisc64-smp'
p320
tp321
(dp322
S'hardware'
p323
S'multiprocessor 64-bit PA-RISC'
p324
ss(S'description'
p325
S'sparc64'
p326
NS'sparc64'
p327
tp328
(dp329
S'hardware'
p330
S'uniprocessor 64-bit UltraSPARC'
p331
ss(S'base'
p332
g191
NS'parisc64-smp'
p333
tp334
(dp335
S'override-host-type'
p336
S'hppa64-linux-gnu'
p337
sS'cflags'
p338
S'-fno-cse-follow-jumps'
p339
ss(S'description'
p340
g5
NS'amd64'
p341
tp342
(dp343
S'hardware'
p344
S'64-bit PCs'
p345
sS'hardware-long'
p346
S'PCs with AMD64, Intel 64 or VIA Nano processors'
p347
ss(S'base'
p348
g16
tp349
(dp350
S'kernel-arch'
p351
S'arm'
p352
sg132
(lp353
g100
ass(S'description'
p354
g108
NS'alpha-legacy'
p355
tp356
(dp357
S'hardware'
p358
S'Alpha Legacy'
p359
sS'hardware-long'
p360
S'DEC Alpha systems with legacy kernel start address'
p361
ss(S'base'
p362
g92
tp363
(dp364
S'kernel-arch'
p365
S'sparc'
p366
sg132
(lp367
g100
ass(S'description'
p368
S's390'
p369
NS's390'
p370
tp371
(dp372
S'hardware'
p373
S'IBM S/390'
p374
ss(S'image'
p375
g83
NS'5kc-malta'
p376
tp377
(dp378
S'configs'
p379
(lp380
S'mips/config.5kc-malta'
p381
ass(S'image'
p382
g150
NS'amd64'
p383
tp384
(dp385
S'configs'
p386
(lp387
S'kernelarch-x86/config-arch-64'
p388
asS'recommends'
p389
S'libc6-i686'
p390
ss(S'image'
p391
g141
NS'sh7785lcr'
p392
tp393
(dp394
S'check-size'
p395
S'4194304'
p396
sS'recommends'
p397
S'uboot-mkimage'
p398
ss(S'build'
p399
g369
NS's390x'
p400
tp401
(dp402
S'debug-info'
p403
I01
ss(S'description'
p404
g16
NS'orion5x'
p405
tp406
(dp407
S'hardware'
p408
S'Marvell Orion'
p409
sS'hardware-long'
p410
S'Marvell Orion 5181, 5182 and 5281 based systems (QNAP TS-109/TS-209, etc)'
p411
ss(g98
g369
g100
tp412
(dp413
g103
I01
sg104
(lp414
S's390x'
p415
ass(g98
g258
g100
tp416
(dp417
g103
I01
sg104
(lp418
S's390x'
p419
ass(S'base'
p420
g25
tp421
(dp422
S'kernel-arch'
p423
S'mips'
p424
sg132
(lp425
g100
ass(S'build'
p426
g5
tp427
(dp428
S'debug-info'
p429
I01
ss(S'image'
p430
g83
tp431
(dp432
S'initramfs'
p433
I00
ss(S'description'
p434
g157
NS'powerpc'
p435
tp436
(dp437
S'hardware'
p438
S'uniprocessor 32-bit PowerPC'
p439
ss(S'description'
p440
g150
NS'486'
p441
tp442
(dp443
S'hardware'
p444
S'older PCs'
p445
sS'parts'
p446
(lp447
S'up'
p448
asS'hardware-long'
p449
S'PCs with a single processor not supporting PAE'
p450
ss(S'description'
p451
g108
NS'alpha-smp'
p452
tp453
(dp454
S'hardware'
p455
S'Alpha SMP'
p456
sS'hardware-long'
p457
S'DEC Alpha SMP systems with extended kernel start address (Wildfire, Titan, Marvel)'
p458
ss(S'base'
p459
g5
tp460
(dp461
S'kernel-arch'
p462
S'x86'
p463
sS'featuresets'
p464
(lp465
S'none'
p466
aS'rt'
p467
ass(S'base'
p468
g48
tp469
(dp470
S'kernel-arch'
p471
S'ia64'
p472
sg132
(lp473
g100
asS'compiler'
p474
S'gcc-4.6'
p475
ss(S'abi'
p476
Ng117
tp477
(dp478
S'ignore-changes'
p479
(lp480
S'*'
p481
ass(S'base'
p482
g369
tp483
(dp484
S'kernel-arch'
p485
S's390'
p486
sg132
(lp487
g100
ass(g98
g16
g100
tp488
(dp489
g103
I01
sg104
(lp490
S'iop32x'
p491
aS'ixp4xx'
p492
aS'kirkwood'
p493
aS'mv78xx0'
p494
aS'orion5x'
p495
aS'versatile'
p496
ass(S'description'
p497
g16
NS'kirkwood'
p498
tp499
(dp500
S'hardware'
p501
S'Marvell Kirkwood'
p502
sS'hardware-long'
p503
S'Marvell Kirkwood based systems (SheevaPlug, QNAP TS-119/TS-219, etc)'
p504
ss(S'description'
p505
g150
tp506
(dp507
S'part-long-pae'
p508
S'This kernel requires PAE (Physical Address Extension).\nThis feature is supported by the Intel Pentium Pro/II/III/4/4M/D, Xeon,\nCore and Atom; AMD Geode NX, Athlon (K7), Duron, Opteron, Sempron,\nTurion or Phenom; Transmeta Efficeon; VIA C7; and some other processors.'
p509
ss(S'base'
p510
NS'rt'
p511
tp512
(dp513
S'enabled'
p514
I00
ss(S'base'
p515
g150
g198
tp516
(dp517
S'flavours'
p518
(lp519
S'486'
p520
aS'686-pae'
p521
aS'amd64'
p522
ass(S'xen'
p523
g5
g41
S'amd64'
p524
tp525
(dp526
S'flavours'
p527
(lp528
S'amd64'
p529
ass(S'image'
p530
g16
tp531
(dp532
S'suggests'
p533
S'fdutils'
p534
ss(S'image'
p535
g369
tp536
(dp537
S'bootloaders'
p538
(lp539
S's390-tools'
p540
ass(S'description'
p541
g326
NS'sparc64-smp'
p542
tp543
(dp544
S'hardware'
p545
S'multiprocessor 64-bit UltraSPARC'
p546
ss(S'image'
p547
g191
tp548
(dp549
S'suggests'
p550
S'palo'
p551
ss(S'description'
p552
g25
NS'r4k-ip22'
p553
tp554
(dp555
S'hardware'
p556
S'SGI IP22'
p557
sS'hardware-long'
p558
S'SGI IP22 systems (Indy, Indigo2)'
p559
ss(S'image'
p560
g264
tp561
(dp562
S'suggests'
p563
S'mkvmlinuz'
p564
sS'configs'
p565
(lp566
S'powerpc/config'
p567
aS'powerpcspe/config.powerpcspe'
p568
ass(S'relations'
p569
g191
tp570
(dp571
S'gcc-4.4'
p572
S'gcc-4.4, binutils-hppa64, gcc-4.4-hppa64'
p573
ss(S'image'
p574
g258
NS's390x'
p575
tp576
(dp577
S'configs'
p578
(lp579
S's390/config.s390x'
p580
ass(S'build'
p581
g141
NS'sh7785lcr'
p582
tp583
(dp584
S'image-file'
p585
S'arch/sh/boot/zImage'
p586
ss(S'image'
p587
g92
NS'sparc32'
p588
tp589
(dp590
S'image-postproc'
p591
S'sparc32-image-postproc'
p592
ss(S'description'
p593
g99
NS'powerpc64'
p594
tp595
(dp596
S'hardware'
p597
S'64-bit PowerPC'
p598
ss(g98
g191
g100
tp599
(dp600
g103
I01
sg104
(lp601
S'parisc'
p602
aS'parisc-smp'
p603
aS'parisc64'
p604
aS'parisc64-smp'
p605
ass(S'image'
p606
g108
tp607
(dp608
S'suggests'
p609
S'aboot, fdutils'
p610
ss(S'base'
p611
g326
tp612
(dp613
S'kernel-arch'
p614
S'sparc'
p615
sg132
(lp616
g100
ass(S'image'
p617
g150
tp618
(dp619
S'configs'
p620
(lp621
sS'bootloaders'
p622
(lp623
S'grub-pc'
p624
aS'extlinux'
p625
aS'lilo'
p626
ass(S'image'
p627
g16
NS'kirkwood'
p628
tp629
(dp630
S'check-size'
p631
S'2097080'
p632
sS'recommends'
p633
S'uboot-mkimage'
p634
ss(S'description'
p635
g141
NS'sh7751r'
p636
tp637
(dp638
S'hardware'
p639
S'sh7751r'
p640
sS'hardware-long'
p641
S'Renesas SH7751R R2D plus board'
p642
ss(S'base'
p643
g258
tp644
(dp645
S'kernel-arch'
p646
S's390'
p647
sg132
(lp648
g100
ass(S'image'
p649
g99
tp650
(dp651
S'suggests'
p652
S'mkvmlinuz'
p653
sS'configs'
p654
(lp655
S'powerpc/config'
p656
ass(S'image'
p657
g25
tp658
(dp659
S'initramfs'
p660
I00
ss(S'description'
p661
g92
NS'sparc64'
p662
tp663
(dp664
S'hardware'
p665
S'uniprocessor 64-bit UltraSPARC'
p666
ss(g98
g92
g100
tp667
(dp668
g103
I01
sg104
(lp669
S'sparc64'
p670
aS'sparc64-smp'
p671
ass(S'base'
p672
g99
tp673
(dp674
S'kernel-arch'
p675
S'powerpc'
p676
sg132
(lp677
g100
ass(g98
g108
g100
tp678
(dp679
g103
I01
sg104
(lp680
S'alpha-generic'
p681
aS'alpha-smp'
p682
aS'alpha-legacy'
p683
ass(S'description'
p684
g150
g198
S'686-pae'
p685
tp686
(dp687
S'parts'
p688
(lp689
S'xen'
p690
ass(S'base'
p691
S'x32'
p692
tp693
(dp694
S'kernel-arch'
p695
S'x86'
p696
sS'featuresets'
p697
(lp698
ss(S'build'
p699
g16
NS'orion5x'
p700
tp701
(dp702
S'image-file'
p703
S'arch/arm/boot/zImage'
p704
ss(g98
g25
g100
tp705
(dp706
g103
I01
sg104
(lp707
S'r4k-ip22'
p708
aS'r5k-ip32'
p709
aS'sb1-bcm91250a'
p710
aS'sb1a-bcm91480b'
p711
aS'4kc-malta'
p712
aS'5kc-malta'
p713
aS'octeon'
p714
ass(S'description'
p715
g83
NS'4kc-malta'
p716
tp717
(dp718
S'hardware'
p719
S'MIPS Malta'
p720
sS'hardware-long'
p721
S'MIPS Malta boards'
p722
ss(S'description'
p723
g150
NS'amd64'
p724
tp725
(dp726
S'hardware'
p727
S'64-bit PCs'
p728
sS'parts'
p729
(lp730
S'xen'
p731
asS'hardware-long'
p732
S'PCs with AMD64, Intel 64 or VIA Nano processors'
p733
ss(S'image'
p734
g5
NS'amd64'
p735
tp736
(dp737
S'configs'
p738
(lp739
S'kernelarch-x86/config-arch-64'
p740
ass(S'build'
p741
g134
NS'armmp-lpae'
p742
tp743
(dp744
S'image-file'
p745
S'arch/arm/boot/zImage'
p746
ss(S'description'
p747
g16
NS'mv78xx0'
p748
tp749
(dp750
S'hardware'
p751
S'Marvell 78xx0'
p752
sS'hardware-long'
p753
S'Marvell DB-78xx0-BP Development Board'
p754
ss(g98
g48
g100
tp755
(dp756
g103
I01
sg104
(lp757
S'itanium'
p758
aS'mckinley'
p759
ass(S'image'
p760
g34
tp761
(dp762
S'suggests'
p763
S'vmelilo, fdutils'
p764
ss(S'description'
p765
g369
NS's390x'
p766
tp767
(dp768
S'hardware'
p769
S'IBM zSeries'
p770
ss(S'description'
p771
g25
NS'4kc-malta'
p772
tp773
(dp774
S'hardware'
p775
S'MIPS Malta'
p776
sS'hardware-long'
p777
S'MIPS Malta boards'
p778
ss(S'base'
p779
g191
NS'parisc64'
p780
tp781
(dp782
S'override-host-type'
p783
S'hppa64-linux-gnu'
p784
sS'cflags'
p785
S'-fno-cse-follow-jumps'
p786
ss(S'base'
p787
g134
tp788
(dp789
S'kernel-arch'
p790
S'arm'
p791
sg132
(lp792
g100
ass(S'description'
p793
g25
NS'octeon'
p794
tp795
(dp796
S'hardware'
p797
S'Octeon'
p798
sS'hardware-long'
p799
S'Cavium Networks Octeon'
p800
ss(S'image'
p801
g141
tp802
(dp803
S'suggests'
p804
S'fdutils'
p805
ss(S'base'
p806
g191
tp807
(dp808
S'kernel-arch'
p809
S'parisc'
p810
sg132
(lp811
g100
asS'compiler'
p812
S'gcc-4.4'
p813
ss(S'base'
p814
g141
tp815
(dp816
S'kernel-arch'
p817
S'sh'
p818
sg132
(lp819
g100
asS'compiler'
p820
S'gcc-4.7'
p821
ss(S'image'
p822
g83
NS'4kc-malta'
p823
tp824
(dp825
S'configs'
p826
(lp827
S'mips/config.4kc-malta'
p828
ass(S'description'
p829
g134
NS'armmp'
p830
tp831
(dp832
S'hardware'
p833
S'ARMv7 multiplatform compatible SoCs'
p834
sS'hardware-long'
p835
S'ARMv7 multiplatform kernel for Marvell Armada 370/xp, Freescale iMX5x/iMX6'
p836
ss(S'image'
p837
g92
tp838
(dp839
S'suggests'
p840
S'silo, fdutils'
p841
ss(S'description'
p842
g83
NS'loongson-2f'
p843
tp844
(dp845
S'hardware'
p846
S'Loongson 2F'
p847
sS'hardware-long'
p848
S'Lemote Loongson 2F systems'
p849
ss(S'description'
p850
g191
NS'parisc'
p851
tp852
(dp853
S'hardware'
p854
S'32-bit PA-RISC'
p855
ss(S'description'
p856
tp857
(dp858
S'part-long-up'
p859
S'This kernel is not suitable for SMP (multi-processor,\nmulti-core or hyper-threaded) systems.'
p860
sS'part-long-xen'
p861
S'This kernel also runs on a Xen hypervisor.\nIt supports both privileged (dom0) and unprivileged (domU) operation.'
p862
ss(S'image'
p863
g16
NS'iop32x'
p864
tp865
(dp866
S'check-size'
p867
S'1441784'
p868
sS'configs'
p869
(lp870
S'armel/config-reduced'
p871
aS'armel/config.iop32x'
p872
ass(S'image'
p873
g150
NS'686-pae'
p874
tp875
(dp876
S'configs'
p877
(lp878
S'kernelarch-x86/config-arch-32'
p879
aS'i386/config.686-pae'
p880
asS'recommends'
p881
S'libc6-i686'
p882
ss(S'image'
p883
g326
tp884
(dp885
S'suggests'
p886
S'silo, fdutils'
p887
sS'configs'
p888
(lp889
S'sparc/config'
p890
ass(S'description'
p891
g150
NS'686-pae'
p892
tp893
(dp894
S'hardware'
p895
S'modern PCs'
p896
sS'parts'
p897
(lp898
S'pae'
p899
asS'hardware-long'
p900
S'PCs with one or more processors supporting PAE'
p901
ss(S'base'
p902
g157
tp903
(dp904
S'kernel-arch'
p905
S'powerpc'
p906
sg132
(lp907
g100
ass(S'image'
p908
g326
NS'sparc64'
p909
tp910
(dp911
S'configs'
p912
(lp913
S'sparc/config.sparc64'
p914
ass(S'image'
p915
g83
NS'loongson-2f'
p916
tp917
(dp918
S'recommends'
p919
S'libc6-loongson2f'
p920
ss(S'description'
p921
g83
NS'sb1a-bcm91480b'
p922
tp923
(dp924
S'hardware'
p925
S'BCM91480B'
p926
sS'hardware-long'
p927
S'Broadcom BCM91480B systems (aka BigSur)'
p928
ss(S'image'
p929
g157
NS'powerpc-smp'
p930
tp931
(dp932
S'configs'
p933
(lp934
S'powerpc/config.powerpc'
p935
aS'powerpc/config.powerpc-smp'
p936
ass(S'image'
p937
g134
tp938
(dp939
S'suggests'
p940
S'fdutils'
p941
sS'configs'
p942
(lp943
S'armel/config'
p944
aS'armhf/config'
p945
ass(S'abi'
p946
tp947
(dp948
S'abiname'
p949
S'2'
p950
ss(S'description'
p951
g25
NS'r5k-ip32'
p952
tp953
(dp954
S'hardware'
p955
S'SGI IP32'
p956
sS'hardware-long'
p957
S'SGI IP32 systems (O2)'
p958
ss(g98
g264
g100
tp959
(dp960
g103
I01
sg104
(lp961
S'powerpcspe'
p962
ass(g98
g34
g100
tp963
(dp964
g103
I01
sg104
(lp965
S'm68k'
p966
ass(S'description'
p967
g157
NS'powerpc64'
p968
tp969
(dp970
S'hardware'
p971
S'64-bit PowerPC'
p972
ss(S'base'
p973
tp974
(dp975
S'arches'
p976
(lp977
S'alpha'
p978
aS'amd64'
p979
aS'arm64'
p980
aS'armel'
p981
aS'armhf'
p982
aS'hppa'
p983
aS'i386'
p984
aS'ia64'
p985
aS'm68k'
p986
aS'mips'
p987
aS'mipsel'
p988
aS'powerpc'
p989
aS'powerpcspe'
p990
aS'ppc64'
p991
aS's390'
p992
aS's390x'
p993
aS'sh4'
p994
aS'sparc'
p995
aS'sparc64'
p996
aS'x32'
p997
asS'featuresets'
p998
(lp999
S'none'
p1000
aS'rt'
p1001
asS'compiler'
p1002
S'gcc-4.8'
p1003
ss(S'image'
p1004
g99
NS'powerpc64'
p1005
tp1006
(dp1007
S'configs'
p1008
(lp1009
S'powerpc/config.powerpc64'
p1010
ass(S'description'
p1011
g92
NS'sparc32'
p1012
tp1013
(dp1014
S'hardware'
p1015
S'uniprocessor sparc32 (sun4m)'
p1016
ss(S'description'
p1017
g83
NS'r5k-cobalt'
p1018
tp1019
(dp1020
S'hardware'
p1021
S'Cobalt'
p1022
sS'hardware-long'
p1023
S'Cobalt systems (Qube, RaQ, Qube2, RaQ2)'
p1024
ss(S'description'
p1025
g258
NS's390x'
p1026
tp1027
(dp1028
S'hardware'
p1029
S'IBM zSeries'
p1030
ss(S'image'
p1031
g83
NS'sb1a-bcm91480b'
p1032
tp1033
(dp1034
S'configs'
p1035
(lp1036
S'mips/config.sb1a-bcm91480b'
p1037
ass(S'description'
p1038
g83
NS'5kc-malta'
p1039
tp1040
(dp1041
S'hardware'
p1042
S'MIPS Malta (64-bit)'
p1043
sS'hardware-long'
p1044
S'MIPS Malta boards (64-bit)'
p1045
ss(S'description'
p1046
g48
NS'itanium'
p1047
tp1048
(dp1049
S'hardware'
p1050
S'Itanium'
p1051
ss(S'base'
p1052
g34
tp1053
(dp1054
S'kernel-arch'
p1055
S'm68k'
p1056
sg132
(lp1057
g100
asS'cflags'
p1058
S'-ffreestanding'
p1059
sS'compiler'
p1060
S'gcc-4.8'
p1061
ss(S'image'
p1062
tp1063
(dp1064
S'initramfs-generators'
p1065
(lp1066
S'initramfs-tools'
p1067
aS'initramfs-fallback'
p1068
asS'type'
p1069
S'plain'
p1070
ss(S'base'
p1071
g264
tp1072
(dp1073
S'kernel-arch'
p1074
S'powerpc'
p1075
sg132
(lp1076
g100
ass(g98
g326
g100
tp1077
(dp1078
g103
I01
sg104
(lp1079
S'sparc64'
p1080
aS'sparc64-smp'
p1081
ass(S'build'
p1082
g16
NS'mv78xx0'
p1083
tp1084
(dp1085
S'image-file'
p1086
S'arch/arm/boot/zImage'
p1087
ss(S'build'
p1088
g150
NS'686-pae'
p1089
tp1090
(dp1091
S'debug-info'
p1092
I01
ss(S'image'
p1093
g134
NS'armmp-lpae'
p1094
tp1095
(dp1096
S'configs'
p1097
(lp1098
S'armhf/config.armmp'
p1099
aS'armhf/config.lpae'
p1100
ass(S'image'
p1101
g150
NS'486'
p1102
tp1103
(dp1104
S'configs'
p1105
(lp1106
S'kernelarch-x86/config-arch-32'
p1107
aS'i386/config.486'
p1108
ass(S'description'
p1109
g157
NS'powerpc-smp'
p1110
tp1111
(dp1112
S'hardware'
p1113
S'multiprocessor 32-bit PowerPC'
p1114
ss(S'image'
p1115
g258
tp1116
(dp1117
S'configs'
p1118
(lp1119
S's390/config'
p1120
asS'bootloaders'
p1121
(lp1122
S's390-tools'
p1123
ass(S'build'
p1124
g16
NS'iop32x'
p1125
tp1126
(dp1127
S'image-file'
p1128
S'arch/arm/boot/zImage'
p1129
ss(S'image'
p1130
g16
NS'orion5x'
p1131
tp1132
(dp1133
S'check-size'
p1134
S'1572792'
p1135
sS'configs'
p1136
(lp1137
S'armel/config-reduced'
p1138
aS'armel/config.orion5x'
p1139
asS'recommends'
p1140
S'uboot-mkimage'
p1141
ss(S'image'
p1142
g83
NS'sb1-bcm91250a'
p1143
tp1144
(dp1145
S'configs'
p1146
(lp1147
S'mips/config.sb1-bcm91250a'
p1148
ass(S'build'
p1149
g16
NS'ixp4xx'
p1150
tp1151
(dp1152
S'image-file'
p1153
S'arch/arm/boot/zImage'
p1154
ss(S'description'
p1155
g191
NS'parisc-smp'
p1156
tp1157
(dp1158
S'hardware'
p1159
S'multiprocessor 32-bit PA-RISC'
p1160
ss(S'image'
p1161
g326
NS'sparc64-smp'
p1162
tp1163
(dp1164
S'configs'
p1165
(lp1166
S'sparc/config.sparc64-smp'
p1167
asstp1168
Rp1169
.