ccopy_reg
_reconstructor
p0
(cdebian_linux.config
ConfigCore
p1
c__builtin__
dict
p2
(dp3
(S'image'
p4
S'amd64'
p5
tp6
(dp7
S'configs'
p8
(lp9
sS'bootloaders'
p10
(lp11
S'grub-pc'
p12
aS'extlinux'
p13
aS'lilo'
p14
ass(S'description'
p15
S'armel'
p16
NS'versatile'
p17
tp18
(dp19
S'hardware'
p20
S'Versatile'
p21
sS'hardware-long'
p22
S'Versatile systems (PB, AB, Qemu)'
p23
ss(S'description'
p24
S'mips'
p25
NS'sb1-bcm91250a'
p26
tp27
(dp28
S'hardware'
p29
S'BCM91250A'
p30
sS'hardware-long'
p31
S'Broadcom BCM91250A systems (aka SWARM)'
p32
ss(S'description'
p33
S'm68k'
p34
NS'm68k'
p35
tp36
(dp37
S'hardware'
p38
S'Motorola MC68020+ family'
p39
ss(S'base'
p40
g5
S'none'
p41
tp42
(dp43
S'flavours'
p44
(lp45
S'amd64'
p46
ass(S'image'
p47
S'ia64'
p48
tp49
(dp50
S'suggests'
p51
S'fdutils'
p52
sS'bootloaders'
p53
(lp54
S'elilo'
p55
ass(S'image'
p56
g16
NS'ixp4xx'
p57
tp58
(dp59
S'check-size'
p60
S'1441760'
p61
sS'configs'
p62
(lp63
S'armel/config-reduced'
p64
aS'armel/config-tiny'
p65
aS'armel/config.ixp4xx'
p66
ass(S'version'
p67
tp68
(dp69
S'abiname'
p70
S'3.12-1'
p71
sS'source'
p72
V3.12.6-1
p73
sS'upstream'
p74
S'3.12'
p75
ss(S'image'
p76
S's390'
p77
NS's390x'
p78
tp79
(dp80
S'configs'
p81
(lp82
S's390x/config.s390x'
p83
ass(S'description'
p84
g5
g41
S'amd64'
p85
tp86
(dp87
S'parts'
p88
(lp89
S'xen'
p90
ass(S'description'
p91
S'mipsel'
p92
NS'sb1-bcm91250a'
p93
tp94
(dp95
S'hardware'
p96
S'BCM91250A'
p97
sS'hardware-long'
p98
S'Broadcom BCM91250A systems (aka SWARM)'
p99
ss(S'description'
p100
S'sparc'
p101
NS'sparc64-smp'
p102
tp103
(dp104
S'hardware'
p105
S'multiprocessor 64-bit UltraSPARC'
p106
ss(S'base'
p107
S'ppc64'
p108
S'none'
p109
tp110
(dp111
S'implicit-flavour'
p112
I01
sS'flavours'
p113
(lp114
S'powerpc64'
p115
ass(S'description'
p116
S'alpha'
p117
NS'alpha-generic'
p118
tp119
(dp120
S'hardware'
p121
S'Alpha'
p122
sS'hardware-long'
p123
S'DEC Alpha systems with extended kernel start address (Wildfire, Titan, Marvel)'
p124
ss(S'description'
p125
NS'rt'
p126
tp127
(dp128
S'part-long-rt'
p129
S'This kernel includes the PREEMPT_RT realtime patch set.'
p130
sS'parts'
p131
(lp132
S'rt'
p133
asS'part-short-rt'
p134
S'PREEMPT_RT'
p135
ss(S'base'
p136
g117
tp137
(dp138
S'kernel-arch'
p139
S'alpha'
p140
sS'featuresets'
p141
(lp142
g109
ass(g107
S'armhf'
p143
g109
tp144
(dp145
g112
I01
sg113
(lp146
S'armmp'
p147
aS'armmp-lpae'
p148
ass(S'description'
p149
S'sh4'
p150
NS'sh7785lcr'
p151
tp152
(dp153
S'hardware'
p154
S'sh7785lcr'
p155
sS'hardware-long'
p156
S'Renesas SH7785 reference board'
p157
ss(S'base'
p158
S'i386'
p159
S'rt'
p160
tp161
(dp162
S'flavours'
p163
(lp164
S'686-pae'
p165
ass(S'relations'
p166
g159
tp167
(dp168
S'headers%gcc-4.8'
p169
S'linux-compiler-gcc-4.8-x86'
p170
ss(S'image'
p171
S'powerpc'
p172
tp173
(dp174
S'suggests'
p175
S'mkvmlinuz'
p176
ss(S'build'
p177
g16
NS'kirkwood'
p178
tp179
(dp180
S'image-file'
p181
S'arch/arm/boot/zImage'
p182
ss(S'base'
p183
g5
S'rt'
p184
tp185
(dp186
S'flavours'
p187
(lp188
S'amd64'
p189
ass(S'description'
p190
g143
NS'armmp-lpae'
p191
tp192
(dp193
S'hardware'
p194
S'ARMv7 multiplatform compatible SoCs supporting LPAE'
p195
sS'hardware-long'
p196
S'ARMv7 multiplatform kernel supporting LPAE'
p197
ss(S'description'
p198
g159
S'none'
p199
S'amd64'
p200
tp201
(dp202
S'parts'
p203
(lp204
S'xen'
p205
ass(S'build'
p206
g143
NS'armmp'
p207
tp208
(dp209
S'image-file'
p210
S'arch/arm/boot/zImage'
p211
ss(S'base'
p212
S'arm64'
p213
tp214
(dp215
S'kernel-arch'
p216
S'arm64'
p217
sS'featuresets'
p218
(lp219
ss(S'base'
p220
g159
tp221
(dp222
S'kernel-arch'
p223
S'x86'
p224
sS'featuresets'
p225
(lp226
S'none'
p227
aS'rt'
p228
ass(S'base'
p229
g92
tp230
(dp231
S'kernel-arch'
p232
S'mips'
p233
sg141
(lp234
g109
ass(S'relations'
p235
g5
tp236
(dp237
S'headers%gcc-4.8'
p238
S'linux-compiler-gcc-4.8-x86'
p239
ss(S'build'
p240
g150
NS'sh7751r'
p241
tp242
(dp243
S'image-file'
p244
S'arch/sh/boot/zImage'
p245
ss(S'description'
p246
g25
NS'sb1a-bcm91480b'
p247
tp248
(dp249
S'hardware'
p250
S'BCM91480B'
p251
sS'hardware-long'
p252
S'Broadcom BCM91480B systems (aka BigSur)'
p253
ss(S'relations'
p254
g77
tp255
(dp256
S'headers%gcc-4.8'
p257
S'linux-compiler-gcc-4.8-s390'
p258
ss(g107
g92
g109
tp259
(dp260
g112
I01
sg113
(lp261
S'r5k-cobalt'
p262
aS'sb1-bcm91250a'
p263
aS'sb1a-bcm91480b'
p264
aS'4kc-malta'
p265
aS'5kc-malta'
p266
aS'loongson-2e'
p267
aS'loongson-2f'
p268
ass(S'build'
p269
S's390x'
p270
NS's390x'
p271
tp272
(dp273
S'debug-info'
p274
I01
ss(S'description'
p275
S'powerpcspe'
p276
tp277
(dp278
S'hardware'
p279
S'32-bit PowerPC with SPE (instead of AltiVec) with SMP support'
p280
ss(S'relations'
p281
tp282
(dp283
S'gcc-4.8'
p284
S'gcc-4.8'
p285
sS'initramfs-fallback'
p286
S'linux-initramfs-tool'
p287
sS'gcc-4.7'
p288
S'gcc-4.7'
p289
sS'gcc-4.6'
p290
S'gcc-4.6'
p291
sS'gcc-4.4'
p292
S'gcc-4.4'
p293
sS'initramfs-tools'
p294
S'initramfs-tools (>= 0.110~)'
p295
ss(S'description'
p296
g48
NS'mckinley'
p297
tp298
(dp299
S'hardware'
p300
S'Itanium II'
p301
ss(S'description'
p302
g16
NS'iop32x'
p303
tp304
(dp305
S'hardware'
p306
S'IOP32x'
p307
sS'hardware-long'
p308
S'IOP32x based systems (Thecus N2100, etc)'
p309
ss(S'description'
p310
g16
NS'ixp4xx'
p311
tp312
(dp313
S'hardware'
p314
S'IXP4xx'
p315
sS'hardware-long'
p316
S'IXP4xx based systems (Linksys NSLU2, etc)'
p317
ss(g107
g150
g109
tp318
(dp319
g112
I01
sg113
(lp320
S'sh7751r'
p321
aS'sh7785lcr'
p322
ass(S'description'
p323
g25
NS'5kc-malta'
p324
tp325
(dp326
S'hardware'
p327
S'MIPS Malta (64-bit)'
p328
sS'hardware-long'
p329
S'MIPS Malta boards (64-bit)'
p330
ss(S'description'
p331
S'hppa'
p332
NS'parisc64-smp'
p333
tp334
(dp335
S'hardware'
p336
S'multiprocessor 64-bit PA-RISC'
p337
sS'hardware-long'
p338
S'HP PA-RISC 64-bit SMP systems with support for more than 4 GB RAM'
p339
ss(S'description'
p340
S'sparc64'
p341
NS'sparc64'
p342
tp343
(dp344
S'hardware'
p345
S'uniprocessor 64-bit UltraSPARC'
p346
ss(S'base'
p347
g332
NS'parisc64-smp'
p348
tp349
(dp350
S'override-host-type'
p351
S'hppa64-linux-gnu'
p352
sS'cflags'
p353
S'-fno-cse-follow-jumps'
p354
ss(S'description'
p355
g5
NS'amd64'
p356
tp357
(dp358
S'hardware'
p359
S'64-bit PCs'
p360
sS'hardware-long'
p361
S'PCs with AMD64, Intel 64 or VIA Nano processors'
p362
ss(S'base'
p363
g16
tp364
(dp365
S'kernel-arch'
p366
S'arm'
p367
sg141
(lp368
g109
ass(S'description'
p369
g117
NS'alpha-legacy'
p370
tp371
(dp372
S'hardware'
p373
S'Alpha Legacy'
p374
sS'hardware-long'
p375
S'DEC Alpha systems with legacy kernel start address'
p376
ss(S'base'
p377
g101
tp378
(dp379
S'kernel-arch'
p380
S'sparc'
p381
sg141
(lp382
g109
ass(S'image'
p383
g92
NS'5kc-malta'
p384
tp385
(dp386
S'configs'
p387
(lp388
S'mips/config.5kc-malta'
p389
ass(S'image'
p390
g159
NS'amd64'
p391
tp392
(dp393
S'configs'
p394
(lp395
S'kernelarch-x86/config-arch-64'
p396
asS'recommends'
p397
S'libc6-i686'
p398
ss(S'image'
p399
g150
NS'sh7785lcr'
p400
tp401
(dp402
S'check-size'
p403
S'4194304'
p404
sS'recommends'
p405
S'uboot-mkimage'
p406
ss(S'build'
p407
g77
NS's390x'
p408
tp409
(dp410
S'debug-info'
p411
I01
ss(S'description'
p412
g16
NS'orion5x'
p413
tp414
(dp415
S'hardware'
p416
S'Marvell Orion'
p417
sS'hardware-long'
p418
S'Marvell Orion 5181, 5182 and 5281 based systems (QNAP TS-109/TS-209, etc)'
p419
ss(g107
g77
g109
tp420
(dp421
g112
I01
sg113
(lp422
S's390x'
p423
ass(g107
g270
g109
tp424
(dp425
g112
I01
sg113
(lp426
S's390x'
p427
ass(S'base'
p428
g25
tp429
(dp430
S'kernel-arch'
p431
S'mips'
p432
sg141
(lp433
g109
ass(S'build'
p434
g5
tp435
(dp436
S'debug-info'
p437
I01
ss(S'image'
p438
g92
tp439
(dp440
S'initramfs'
p441
I00
ss(S'description'
p442
g172
NS'powerpc'
p443
tp444
(dp445
S'hardware'
p446
S'uniprocessor 32-bit PowerPC'
p447
ss(S'description'
p448
g159
NS'486'
p449
tp450
(dp451
S'hardware'
p452
S'older PCs'
p453
sS'parts'
p454
(lp455
S'up'
p456
asS'hardware-long'
p457
S'PCs with a single processor not supporting PAE'
p458
ss(S'description'
p459
g92
NS'loongson-2e'
p460
tp461
(dp462
S'hardware'
p463
S'Loongson 2E'
p464
sS'hardware-long'
p465
S'Lemote Loongson 2E systems'
p466
ss(S'description'
p467
g117
NS'alpha-smp'
p468
tp469
(dp470
S'hardware'
p471
S'Alpha SMP'
p472
sS'hardware-long'
p473
S'DEC Alpha SMP systems with extended kernel start address (Wildfire, Titan, Marvel)'
p474
ss(S'base'
p475
g5
tp476
(dp477
S'kernel-arch'
p478
S'x86'
p479
sS'featuresets'
p480
(lp481
S'none'
p482
aS'rt'
p483
ass(S'base'
p484
g48
tp485
(dp486
S'kernel-arch'
p487
S'ia64'
p488
sg141
(lp489
g109
asS'compiler'
p490
S'gcc-4.6'
p491
ss(S'abi'
p492
Ng126
tp493
(dp494
S'ignore-changes'
p495
(lp496
S'*'
p497
ass(S'base'
p498
g77
tp499
(dp500
S'kernel-arch'
p501
S's390'
p502
sg141
(lp503
g109
ass(g107
g16
g109
tp504
(dp505
g112
I01
sg113
(lp506
S'iop32x'
p507
aS'ixp4xx'
p508
aS'kirkwood'
p509
aS'mv78xx0'
p510
aS'orion5x'
p511
aS'versatile'
p512
ass(S'description'
p513
g16
NS'kirkwood'
p514
tp515
(dp516
S'hardware'
p517
S'Marvell Kirkwood'
p518
sS'hardware-long'
p519
S'Marvell Kirkwood based systems (SheevaPlug, QNAP TS-119/TS-219, etc)'
p520
ss(S'description'
p521
g159
tp522
(dp523
S'part-long-pae'
p524
S'This kernel requires PAE (Physical Address Extension).\nThis feature is supported by the Intel Pentium Pro/II/III/4/4M/D, Xeon,\nCore and Atom; AMD Geode NX, Athlon (K7), Duron, Opteron, Sempron,\nTurion or Phenom; Transmeta Efficeon; VIA C7; and some other processors.'
p525
ss(S'base'
p526
NS'rt'
p527
tp528
(dp529
S'enabled'
p530
I01
ss(S'base'
p531
g159
g199
tp532
(dp533
S'flavours'
p534
(lp535
S'486'
p536
aS'686-pae'
p537
aS'amd64'
p538
ass(S'xen'
p539
g5
g41
S'amd64'
p540
tp541
(dp542
S'flavours'
p543
(lp544
S'amd64'
p545
ass(S'image'
p546
g16
tp547
(dp548
S'suggests'
p549
S'fdutils'
p550
ss(S'image'
p551
g77
tp552
(dp553
S'configs'
p554
(lp555
S's390x/config'
p556
asS'bootloaders'
p557
(lp558
S's390-tools'
p559
ass(S'description'
p560
g341
NS'sparc64-smp'
p561
tp562
(dp563
S'hardware'
p564
S'multiprocessor 64-bit UltraSPARC'
p565
ss(S'relations'
p566
g16
tp567
(dp568
S'headers%gcc-4.8'
p569
S'linux-compiler-gcc-4.8-arm'
p570
ss(S'image'
p571
g332
tp572
(dp573
S'suggests'
p574
S'palo'
p575
ss(S'description'
p576
g25
NS'r4k-ip22'
p577
tp578
(dp579
S'hardware'
p580
S'SGI IP22'
p581
sS'hardware-long'
p582
S'SGI IP22 systems (Indy, Indigo2)'
p583
ss(S'image'
p584
g276
tp585
(dp586
S'suggests'
p587
S'mkvmlinuz'
p588
sS'configs'
p589
(lp590
S'powerpc/config'
p591
aS'powerpcspe/config.powerpcspe'
p592
ass(S'relations'
p593
g332
tp594
(dp595
S'gcc-4.8'
p596
S'gcc-4.8, binutils-hppa64, gcc-4.8-hppa64'
p597
ss(S'build'
p598
g150
NS'sh7785lcr'
p599
tp600
(dp601
S'image-file'
p602
S'arch/sh/boot/zImage'
p603
ss(S'image'
p604
g101
NS'sparc32'
p605
tp606
(dp607
S'image-postproc'
p608
S'sparc32-image-postproc'
p609
ss(S'description'
p610
g108
NS'powerpc64'
p611
tp612
(dp613
S'hardware'
p614
S'64-bit PowerPC'
p615
ss(g107
g332
g109
tp616
(dp617
g112
I01
sg113
(lp618
S'parisc'
p619
aS'parisc64-smp'
p620
ass(S'image'
p621
g117
tp622
(dp623
S'suggests'
p624
S'aboot, fdutils'
p625
ss(S'base'
p626
g341
tp627
(dp628
S'kernel-arch'
p629
S'sparc'
p630
sg141
(lp631
g109
ass(S'image'
p632
g159
tp633
(dp634
S'configs'
p635
(lp636
sS'bootloaders'
p637
(lp638
S'grub-pc'
p639
aS'extlinux'
p640
aS'lilo'
p641
ass(S'image'
p642
g16
NS'kirkwood'
p643
tp644
(dp645
S'check-size'
p646
S'2097080'
p647
sS'recommends'
p648
S'uboot-mkimage'
p649
ss(S'description'
p650
g150
NS'sh7751r'
p651
tp652
(dp653
S'hardware'
p654
S'sh7751r'
p655
sS'hardware-long'
p656
S'Renesas SH7751R R2D plus board'
p657
ss(S'base'
p658
g270
tp659
(dp660
S'kernel-arch'
p661
S's390'
p662
sg141
(lp663
g109
ass(S'image'
p664
g108
tp665
(dp666
S'suggests'
p667
S'mkvmlinuz'
p668
sS'configs'
p669
(lp670
S'powerpc/config'
p671
ass(S'image'
p672
g25
tp673
(dp674
S'initramfs'
p675
I00
ss(S'description'
p676
g101
NS'sparc64'
p677
tp678
(dp679
S'hardware'
p680
S'uniprocessor 64-bit UltraSPARC'
p681
ss(g107
g101
g109
tp682
(dp683
g112
I01
sg113
(lp684
S'sparc64'
p685
aS'sparc64-smp'
p686
ass(S'base'
p687
g108
tp688
(dp689
S'kernel-arch'
p690
S'powerpc'
p691
sg141
(lp692
g109
ass(g107
g117
g109
tp693
(dp694
g112
I01
sg113
(lp695
S'alpha-generic'
p696
aS'alpha-smp'
p697
aS'alpha-legacy'
p698
ass(S'description'
p699
g159
g199
S'686-pae'
p700
tp701
(dp702
S'parts'
p703
(lp704
S'xen'
p705
ass(S'base'
p706
S'x32'
p707
tp708
(dp709
S'kernel-arch'
p710
S'x86'
p711
sS'featuresets'
p712
(lp713
ss(S'build'
p714
g16
NS'orion5x'
p715
tp716
(dp717
S'image-file'
p718
S'arch/arm/boot/zImage'
p719
ss(g107
g25
g109
tp720
(dp721
g112
I01
sg113
(lp722
S'r4k-ip22'
p723
aS'r5k-ip32'
p724
aS'sb1-bcm91250a'
p725
aS'sb1a-bcm91480b'
p726
aS'4kc-malta'
p727
aS'5kc-malta'
p728
aS'octeon'
p729
ass(S'description'
p730
g92
NS'4kc-malta'
p731
tp732
(dp733
S'hardware'
p734
S'MIPS Malta'
p735
sS'hardware-long'
p736
S'MIPS Malta boards'
p737
ss(S'description'
p738
g159
NS'amd64'
p739
tp740
(dp741
S'hardware'
p742
S'64-bit PCs'
p743
sS'parts'
p744
(lp745
S'xen'
p746
asS'hardware-long'
p747
S'PCs with AMD64, Intel 64 or VIA Nano processors'
p748
ss(S'description'
p749
g159
NS'686-pae'
p750
tp751
(dp752
S'hardware'
p753
S'modern PCs'
p754
sS'parts'
p755
(lp756
S'pae'
p757
asS'hardware-long'
p758
S'PCs with one or more processors supporting PAE'
p759
ss(S'image'
p760
g5
NS'amd64'
p761
tp762
(dp763
S'configs'
p764
(lp765
S'kernelarch-x86/config-arch-64'
p766
ass(S'build'
p767
g143
NS'armmp-lpae'
p768
tp769
(dp770
S'image-file'
p771
S'arch/arm/boot/zImage'
p772
ss(S'description'
p773
g16
NS'mv78xx0'
p774
tp775
(dp776
S'hardware'
p777
S'Marvell 78xx0'
p778
sS'hardware-long'
p779
S'Marvell DB-78xx0-BP Development Board'
p780
ss(g107
g48
g109
tp781
(dp782
g112
I01
sg113
(lp783
S'itanium'
p784
aS'mckinley'
p785
ass(S'image'
p786
g34
tp787
(dp788
S'suggests'
p789
S'vmelilo, fdutils'
p790
ss(S'description'
p791
g77
NS's390x'
p792
tp793
(dp794
S'hardware'
p795
S'IBM zSeries'
p796
ss(S'description'
p797
g25
NS'4kc-malta'
p798
tp799
(dp800
S'hardware'
p801
S'MIPS Malta'
p802
sS'hardware-long'
p803
S'MIPS Malta boards'
p804
ss(S'base'
p805
g143
tp806
(dp807
S'kernel-arch'
p808
S'arm'
p809
sg141
(lp810
g109
ass(S'description'
p811
g25
NS'octeon'
p812
tp813
(dp814
S'hardware'
p815
S'Octeon'
p816
sS'hardware-long'
p817
S'Cavium Networks Octeon'
p818
ss(S'image'
p819
g150
tp820
(dp821
S'suggests'
p822
S'fdutils'
p823
ss(S'base'
p824
g332
tp825
(dp826
S'kernel-arch'
p827
S'parisc'
p828
sg141
(lp829
g109
ass(S'base'
p830
g150
tp831
(dp832
S'kernel-arch'
p833
S'sh'
p834
sg141
(lp835
g109
asS'compiler'
p836
S'gcc-4.7'
p837
ss(S'image'
p838
g92
NS'4kc-malta'
p839
tp840
(dp841
S'configs'
p842
(lp843
S'mips/config.4kc-malta'
p844
ass(S'description'
p845
g143
NS'armmp'
p846
tp847
(dp848
S'hardware'
p849
S'ARMv7 multiplatform compatible SoCs'
p850
sS'hardware-long'
p851
S'ARMv7 multiplatform kernel for Marvell Armada 370/xp, Freescale iMX5x/iMX6'
p852
ss(S'image'
p853
g101
tp854
(dp855
S'suggests'
p856
S'silo, fdutils'
p857
ss(S'description'
p858
g92
NS'loongson-2f'
p859
tp860
(dp861
S'hardware'
p862
S'Loongson 2F'
p863
sS'hardware-long'
p864
S'Lemote Loongson 2F systems'
p865
ss(S'description'
p866
g332
NS'parisc'
p867
tp868
(dp869
S'hardware'
p870
S'32-bit PA-RISC'
p871
sS'hardware-long'
p872
S'HP PA-RISC 32-bit systems with max 4 GB RAM'
p873
ss(S'description'
p874
tp875
(dp876
S'part-long-up'
p877
S'This kernel is not suitable for SMP (multi-processor,\nmulti-core or hyper-threaded) systems.'
p878
sS'part-long-xen'
p879
S'This kernel also runs on a Xen hypervisor.\nIt supports both privileged (dom0) and unprivileged (domU) operation.'
p880
ss(S'relations'
p881
g143
tp882
(dp883
S'headers%gcc-4.8'
p884
S'linux-compiler-gcc-4.8--arm'
p885
ss(S'image'
p886
g16
NS'iop32x'
p887
tp888
(dp889
S'check-size'
p890
S'1441784'
p891
sS'configs'
p892
(lp893
S'armel/config-reduced'
p894
aS'armel/config-tiny'
p895
aS'armel/config.iop32x'
p896
ass(S'image'
p897
g159
NS'686-pae'
p898
tp899
(dp900
S'configs'
p901
(lp902
S'kernelarch-x86/config-arch-32'
p903
aS'i386/config.686-pae'
p904
asS'recommends'
p905
S'libc6-i686'
p906
ss(S'image'
p907
g341
tp908
(dp909
S'suggests'
p910
S'silo, fdutils'
p911
sS'configs'
p912
(lp913
S'sparc/config'
p914
ass(S'relations'
p915
g270
tp916
(dp917
S'headers%gcc-4.8'
p918
S'linux-compiler-gcc-4.8-s390'
p919
ss(S'base'
p920
g172
tp921
(dp922
S'kernel-arch'
p923
S'powerpc'
p924
sg141
(lp925
g109
ass(S'image'
p926
g341
NS'sparc64'
p927
tp928
(dp929
S'configs'
p930
(lp931
S'sparc/config.sparc64'
p932
ass(S'image'
p933
g92
NS'loongson-2f'
p934
tp935
(dp936
S'recommends'
p937
S'libc6-loongson2f'
p938
ss(S'description'
p939
g92
NS'sb1a-bcm91480b'
p940
tp941
(dp942
S'hardware'
p943
S'BCM91480B'
p944
sS'hardware-long'
p945
S'Broadcom BCM91480B systems (aka BigSur)'
p946
ss(S'image'
p947
g172
NS'powerpc-smp'
p948
tp949
(dp950
S'configs'
p951
(lp952
S'powerpc/config.powerpc'
p953
aS'powerpc/config.powerpc-smp'
p954
ass(S'image'
p955
g143
tp956
(dp957
S'suggests'
p958
S'fdutils'
p959
sS'configs'
p960
(lp961
S'armel/config'
p962
aS'armhf/config'
p963
ass(S'abi'
p964
tp965
(dp966
S'abiname'
p967
S'1'
p968
ss(S'description'
p969
g25
NS'r5k-ip32'
p970
tp971
(dp972
S'hardware'
p973
S'SGI IP32'
p974
sS'hardware-long'
p975
S'SGI IP32 systems (O2)'
p976
ss(g107
g276
g109
tp977
(dp978
g112
I01
sg113
(lp979
S'powerpcspe'
p980
ass(g107
g34
g109
tp981
(dp982
g112
I01
sg113
(lp983
S'm68k'
p984
ass(S'description'
p985
g172
NS'powerpc64'
p986
tp987
(dp988
S'hardware'
p989
S'64-bit PowerPC'
p990
ss(S'base'
p991
tp992
(dp993
S'arches'
p994
(lp995
S'alpha'
p996
aS'amd64'
p997
aS'arm64'
p998
aS'armel'
p999
aS'armhf'
p1000
aS'hppa'
p1001
aS'i386'
p1002
aS'ia64'
p1003
aS'm68k'
p1004
aS'mips'
p1005
aS'mipsel'
p1006
aS'powerpc'
p1007
aS'powerpcspe'
p1008
aS'ppc64'
p1009
aS's390'
p1010
aS's390x'
p1011
aS'sh4'
p1012
aS'sparc'
p1013
aS'sparc64'
p1014
aS'x32'
p1015
asS'featuresets'
p1016
(lp1017
S'none'
p1018
aS'rt'
p1019
asS'compiler'
p1020
S'gcc-4.8'
p1021
ss(S'image'
p1022
g108
NS'powerpc64'
p1023
tp1024
(dp1025
S'configs'
p1026
(lp1027
S'powerpc/config.powerpc64'
p1028
ass(S'description'
p1029
g101
NS'sparc32'
p1030
tp1031
(dp1032
S'hardware'
p1033
S'uniprocessor sparc32 (sun4m)'
p1034
ss(g107
g172
g109
tp1035
(dp1036
g112
I01
sg113
(lp1037
S'powerpc'
p1038
aS'powerpc-smp'
p1039
aS'powerpc64'
p1040
ass(S'description'
p1041
g270
NS's390x'
p1042
tp1043
(dp1044
S'hardware'
p1045
S'IBM zSeries'
p1046
ss(S'image'
p1047
g92
NS'sb1a-bcm91480b'
p1048
tp1049
(dp1050
S'configs'
p1051
(lp1052
S'mips/config.sb1a-bcm91480b'
p1053
ass(S'description'
p1054
g92
NS'5kc-malta'
p1055
tp1056
(dp1057
S'hardware'
p1058
S'MIPS Malta (64-bit)'
p1059
sS'hardware-long'
p1060
S'MIPS Malta boards (64-bit)'
p1061
ss(S'description'
p1062
g48
NS'itanium'
p1063
tp1064
(dp1065
S'hardware'
p1066
S'Itanium'
p1067
ss(S'base'
p1068
g34
tp1069
(dp1070
S'kernel-arch'
p1071
S'm68k'
p1072
sg141
(lp1073
g109
asS'cflags'
p1074
S'-ffreestanding'
p1075
sS'compiler'
p1076
S'gcc-4.8'
p1077
ss(S'image'
p1078
tp1079
(dp1080
S'initramfs-generators'
p1081
(lp1082
S'initramfs-tools'
p1083
aS'initramfs-fallback'
p1084
asS'type'
p1085
S'plain'
p1086
ss(S'base'
p1087
g276
tp1088
(dp1089
S'kernel-arch'
p1090
S'powerpc'
p1091
sg141
(lp1092
g109
ass(g107
g341
g109
tp1093
(dp1094
g112
I01
sg113
(lp1095
S'sparc64'
p1096
aS'sparc64-smp'
p1097
ass(S'description'
p1098
g92
NS'r5k-cobalt'
p1099
tp1100
(dp1101
S'hardware'
p1102
S'Cobalt'
p1103
sS'hardware-long'
p1104
S'Cobalt systems (Qube, RaQ, Qube2, RaQ2)'
p1105
ss(S'build'
p1106
g16
NS'mv78xx0'
p1107
tp1108
(dp1109
S'image-file'
p1110
S'arch/arm/boot/zImage'
p1111
ss(S'image'
p1112
g143
NS'armmp-lpae'
p1113
tp1114
(dp1115
S'configs'
p1116
(lp1117
S'armhf/config.armmp'
p1118
aS'armhf/config.lpae'
p1119
ass(S'image'
p1120
g159
NS'486'
p1121
tp1122
(dp1123
S'configs'
p1124
(lp1125
S'kernelarch-x86/config-arch-32'
p1126
aS'i386/config.486'
p1127
ass(S'description'
p1128
g172
NS'powerpc-smp'
p1129
tp1130
(dp1131
S'hardware'
p1132
S'multiprocessor 32-bit PowerPC'
p1133
ss(S'image'
p1134
g270
tp1135
(dp1136
S'bootloaders'
p1137
(lp1138
S's390-tools'
p1139
ass(S'build'
p1140
g16
NS'iop32x'
p1141
tp1142
(dp1143
S'image-file'
p1144
S'arch/arm/boot/zImage'
p1145
ss(S'image'
p1146
g16
NS'orion5x'
p1147
tp1148
(dp1149
S'check-size'
p1150
S'1572792'
p1151
sS'configs'
p1152
(lp1153
S'armel/config-reduced'
p1154
aS'armel/config.orion5x'
p1155
asS'recommends'
p1156
S'uboot-mkimage'
p1157
ss(S'image'
p1158
g92
NS'sb1-bcm91250a'
p1159
tp1160
(dp1161
S'configs'
p1162
(lp1163
S'mips/config.sb1-bcm91250a'
p1164
ass(S'build'
p1165
g16
NS'ixp4xx'
p1166
tp1167
(dp1168
S'image-file'
p1169
S'arch/arm/boot/zImage'
p1170
ss(S'build'
p1171
g159
NS'686-pae'
p1172
tp1173
(dp1174
S'debug-info'
p1175
I01
ss(S'image'
p1176
g341
NS'sparc64-smp'
p1177
tp1178
(dp1179
S'configs'
p1180
(lp1181
S'sparc/config.sparc64-smp'
p1182
asstp1183
Rp1184
.