ccopy_reg
_reconstructor
p0
(cdebian_linux.config
ConfigCore
p1
c__builtin__
dict
p2
(dp3
(S'image'
p4
S'amd64'
p5
NS'amd64'
p6
tp7
(dp8
S'configs'
p9
(lp10
S'kernelarch-x86/config-arch-64'
p11
ass(S'image'
p12
g5
tp13
(dp14
S'install-stem'
p15
S'vmlinuz'
p16
sS'configs'
p17
(lp18
sS'bootloaders'
p19
(lp20
S'grub-pc'
p21
aS'grub-efi'
p22
aS'extlinux'
p23
ass(S'image'
p24
S'mips64el'
p25
NS'loongson-3'
p26
tp27
(dp28
S'configs'
p29
(lp30
S'kernelarch-mips/config.loongson-3'
p31
ass(S'base'
p32
g5
S'none'
p33
tp34
(dp35
S'flavours'
p36
(lp37
S'amd64'
p38
ass(S'image'
p39
S'powerpcspe'
p40
tp41
(dp42
S'suggests'
p43
S'mkvmlinuz'
p44
sS'install-stem'
p45
S'vmlinux'
p46
ss(S'description'
p47
S'armel'
p48
NS'kirkwood'
p49
tp50
(dp51
S'hardware'
p52
S'Marvell Kirkwood'
p53
sS'hardware-long'
p54
S'Marvell Kirkwood based systems (SheevaPlug, QNAP TS-119/TS-219, etc)'
p55
ss(S'image'
p56
S'ia64'
p57
tp58
(dp59
S'suggests'
p60
S'fdutils'
p61
sS'bootloaders'
p62
(lp63
S'elilo'
p64
asS'install-stem'
p65
S'vmlinuz'
p66
ss(S'abi'
p67
tp68
(dp69
S'abiname'
p70
S'2'
p71
sS'ignore-changes'
p72
(lp73
S'module:arch/x86/kvm/kvm'
p74
ass(S'description'
p75
S's390x'
p76
NS's390x'
p77
tp78
(dp79
S'hardware'
p80
S'IBM zSeries'
p81
ss(S'description'
p82
S'armhf'
p83
NS'armmp'
p84
tp85
(dp86
S'hardware'
p87
S'ARMv7 multiplatform compatible SoCs'
p88
sS'hardware-long'
p89
S'ARMv7 multiplatform kernel. See\nhttps://wiki.debian.org/DebianKernel/ARMMP for details of supported\nplatforms'
p90
ss(S'base'
p91
NS'rt'
p92
tp93
(dp94
S'enabled'
p95
I01
ss(S'version'
p96
tp97
(dp98
S'abiname'
p99
S'4.0.0-2'
p100
sS'source'
p101
V4.0.5-1
p102
sS'abiname_base'
p103
S'4.0.0'
p104
sS'upstream'
p105
S'4.0'
p106
ss(S'description'
p107
S'sparc'
p108
NS'sparc32'
p109
tp110
(dp111
S'hardware'
p112
S'uniprocessor sparc32 (sun4m)'
p113
ss(S'description'
p114
g5
g33
S'amd64'
p115
tp116
(dp117
S'parts'
p118
(lp119
S'xen'
p120
ass(S'base'
p121
S'ppc64'
p122
S'none'
p123
tp124
(dp125
S'implicit-flavour'
p126
I01
sS'flavours'
p127
(lp128
S'powerpc64'
p129
ass(S'description'
p130
S'powerpc'
p131
NS'powerpc-smp'
p132
tp133
(dp134
S'hardware'
p135
S'multiprocessor 32-bit PowerPC'
p136
ss(S'description'
p137
g5
NS'amd64'
p138
tp139
(dp140
S'hardware'
p141
S'64-bit PCs'
p142
sS'hardware-long'
p143
S'PCs with AMD64, Intel 64 or VIA Nano processors'
p144
ss(S'image'
p145
g76
NS's390x'
p146
tp147
(dp148
S'configs'
p149
(lp150
S'kernelarch-s390/config-arch-64'
p151
ass(S'description'
p152
g108
NS'sparc64'
p153
tp154
(dp155
S'hardware'
p156
S'uniprocessor 64-bit UltraSPARC'
p157
ss(S'description'
p158
g108
NS'sparc64-smp'
p159
tp160
(dp161
S'hardware'
p162
S'multiprocessor 64-bit UltraSPARC'
p163
ss(S'base'
p164
S'alpha'
p165
tp166
(dp167
S'kernel-arch'
p168
S'alpha'
p169
sS'featuresets'
p170
(lp171
g123
ass(g121
g83
g123
tp172
(dp173
g126
I01
sg127
(lp174
S'armmp'
p175
aS'armmp-lpae'
p176
ass(S'image'
p177
S'mips'
p178
NS'5kc-malta'
p179
tp180
(dp181
S'configs'
p182
(lp183
S'kernelarch-mips/config.5kc-malta'
p184
ass(S'image'
p185
S'i386'
p186
NS'586'
p187
tp188
(dp189
S'configs'
p190
(lp191
S'kernelarch-x86/config-arch-32'
p192
aS'i386/config.586'
p193
ass(S'description'
p194
g178
NS'r5k-ip32'
p195
tp196
(dp197
S'hardware'
p198
S'SGI IP32'
p199
sS'hardware-long'
p200
S'SGI IP32 systems (O2)'
p201
ss(S'base'
p202
g186
S'rt'
p203
tp204
(dp205
S'flavours'
p206
(lp207
S'686-pae'
p208
ass(S'description'
p209
g57
NS'itanium'
p210
tp211
(dp212
S'hardware'
p213
S'Itanium'
p214
ss(S'image'
p215
g48
NS'orion5x'
p216
tp217
(dp218
S'check-size'
p219
I2097080
sS'check-size-with-dtb'
p220
I01
sS'configs'
p221
(lp222
S'armel/config-reduced'
p223
aS'armel/config.orion5x'
p224
asS'recommends'
p225
S'uboot-mkimage'
p226
ss(S'relations'
p227
g186
tp228
(dp229
S'headers%gcc-4.9'
p230
S'linux-compiler-gcc-4.9-x86'
p231
ss(S'image'
p232
g131
tp233
(dp234
S'suggests'
p235
S'mkvmlinuz'
p236
sS'configs'
p237
(lp238
sS'install-stem'
p239
S'vmlinux'
p240
ss(S'image'
p241
S'sh4'
p242
NS'sh7785lcr'
p243
tp244
(dp245
S'check-size'
p246
I4194304
sS'recommends'
p247
S'uboot-mkimage'
p248
ss(S'description'
p249
NS'rt'
p250
tp251
(dp252
S'part-long-rt'
p253
S'This kernel includes the PREEMPT_RT realtime patch set.'
p254
sS'parts'
p255
(lp256
S'rt'
p257
asS'part-short-rt'
p258
S'PREEMPT_RT'
p259
ss(S'base'
p260
g5
S'rt'
p261
tp262
(dp263
S'flavours'
p264
(lp265
S'amd64'
p266
ass(S'description'
p267
S'sparc64'
p268
NS'sparc64'
p269
tp270
(dp271
S'hardware'
p272
S'uniprocessor 64-bit UltraSPARC'
p273
ss(S'build'
p274
S'ppc64el'
p275
tp276
(dp277
S'image-file'
p278
S'vmlinux'
p279
ss(S'build'
p280
g122
tp281
(dp282
S'image-file'
p283
S'vmlinux'
p284
ss(S'description'
p285
g83
NS'armmp-lpae'
p286
tp287
(dp288
S'hardware'
p289
S'ARMv7 multiplatform compatible SoCs supporting LPAE'
p290
sS'hardware-long'
p291
S'ARMv7 multiplatform kernel supporting LPAE. See\nhttps://wiki.debian.org/DebianKernel/ARMMP for details of supported\nplatforms.'
p292
ss(S'image'
p293
g186
NS'686-pae'
p294
tp295
(dp296
S'configs'
p297
(lp298
S'kernelarch-x86/config-arch-32'
p299
aS'i386/config.686-pae'
p300
asS'recommends'
p301
S'libc6-i686'
p302
ss(S'base'
p303
g186
tp304
(dp305
S'kernel-arch'
p306
S'x86'
p307
sS'featuresets'
p308
(lp309
S'none'
p310
aS'rt'
p311
ass(S'base'
p312
S'mipsel'
p313
tp314
(dp315
S'kernel-arch'
p316
S'mips'
p317
sg170
(lp318
g123
ass(S'description'
p319
g242
NS'sh7751r'
p320
tp321
(dp322
S'hardware'
p323
S'sh7751r'
p324
sS'hardware-long'
p325
S'Renesas SH7751R R2D plus board'
p326
ss(S'relations'
p327
g5
tp328
(dp329
S'headers%gcc-4.9'
p330
S'linux-compiler-gcc-4.9-x86'
p331
ss(S'description'
p332
g313
NS'sb1-bcm91250a'
p333
tp334
(dp335
S'hardware'
p336
S'BCM91250A'
p337
sS'hardware-long'
p338
S'Broadcom BCM91250A systems (aka SWARM)'
p339
ss(S'description'
p340
S'arm64'
p341
NS'arm64'
p342
tp343
(dp344
S'hardware'
p345
S'64-bit ARMv8 machines'
p346
ss(S'description'
p347
g313
NS'5kc-malta'
p348
tp349
(dp350
S'hardware'
p351
S'MIPS Malta (64-bit)'
p352
sS'hardware-long'
p353
S'MIPS Malta boards (64-bit)'
p354
ss(S'image'
p355
g313
NS'5kc-malta'
p356
tp357
(dp358
S'configs'
p359
(lp360
S'kernelarch-mips/config.5kc-malta'
p361
ass(g121
g313
g123
tp362
(dp363
g126
I01
sg127
(lp364
S'sb1-bcm91250a'
p365
aS'4kc-malta'
p366
aS'5kc-malta'
p367
aS'loongson-2e'
p368
aS'loongson-2f'
p369
aS'loongson-3'
p370
ass(S'description'
p371
g178
NS'4kc-malta'
p372
tp373
(dp374
S'hardware'
p375
S'MIPS Malta'
p376
sS'hardware-long'
p377
S'MIPS Malta boards'
p378
ss(S'description'
p379
g40
tp380
(dp381
S'hardware'
p382
S'32-bit PowerPC with SPE (instead of AltiVec) with SMP support'
p383
ss(S'relations'
p384
tp385
(dp386
S'gcc-4.9'
p387
S'gcc-4.9'
p388
sS'gcc-4.8'
p389
S'gcc-4.8'
p390
sS'initramfs-fallback'
p391
S'linux-initramfs-tool'
p392
sS'gcc-4.7'
p393
S'gcc-4.7'
p394
sS'gcc-4.6'
p395
S'gcc-4.6'
p396
sS'initramfs-tools'
p397
S'initramfs-tools (>= 0.110~)'
p398
ss(S'build'
p399
g165
tp400
(dp401
S'image-file'
p402
S'arch/alpha/boot/vmlinux.gz'
p403
ss(S'image'
p404
g83
tp405
(dp406
S'suggests'
p407
S'fdutils'
p408
sS'configs'
p409
(lp410
S'kernelarch-arm/config'
p411
aS'armhf/config'
p412
asS'install-stem'
p413
S'vmlinuz'
p414
ss(S'build'
p415
g40
tp416
(dp417
S'image-file'
p418
S'vmlinux'
p419
ss(S'description'
p420
S'mips64'
p421
NS'5kc-malta'
p422
tp423
(dp424
S'hardware'
p425
S'MIPS Malta'
p426
sS'hardware-long'
p427
S'MIPS Malta boards'
p428
ss(g121
g242
g123
tp429
(dp430
g126
I01
sg127
(lp431
S'sh7751r'
p432
aS'sh7785lcr'
p433
ass(S'build'
p434
S'hppa'
p435
tp436
(dp437
S'image-file'
p438
S'vmlinux'
p439
ss(S'image'
p440
g178
NS'4kc-malta'
p441
tp442
(dp443
S'configs'
p444
(lp445
S'kernelarch-mips/config.4kc-malta'
p446
ass(S'base'
p447
g48
tp448
(dp449
S'kernel-arch'
p450
S'arm'
p451
sg170
(lp452
g123
ass(S'description'
p453
g186
NS'586'
p454
tp455
(dp456
S'hardware'
p457
S'older PCs'
p458
sS'parts'
p459
(lp460
S'up'
p461
asS'hardware-long'
p462
S'PCs with a single processor not supporting PAE'
p463
ss(S'image'
p464
g178
NS'octeon'
p465
tp466
(dp467
S'configs'
p468
(lp469
S'kernelarch-mips/config.octeon'
p470
ass(S'build'
p471
g341
tp472
(dp473
S'debug-info'
p474
I01
sS'image-file'
p475
S'arch/arm64/boot/Image'
p476
ss(S'description'
p477
S'm68k'
p478
NS'm68k'
p479
tp480
(dp481
S'hardware'
p482
S'Motorola MC68020+ family'
p483
ss(S'base'
p484
g108
tp485
(dp486
S'kernel-arch'
p487
S'sparc'
p488
sg170
(lp489
g123
ass(S'image'
p490
g275
NS'powerpc64le'
p491
tp492
(dp493
S'configs'
p494
(lp495
S'kernelarch-powerpc/config-arch-64'
p496
aS'kernelarch-powerpc/config-arch-64-le'
p497
ass(g121
g76
g123
tp498
(dp499
g126
I01
sg127
(lp500
S's390x'
p501
ass(S'base'
p502
g178
tp503
(dp504
S'kernel-arch'
p505
S'mips'
p506
sg170
(lp507
g123
ass(S'build'
p508
g5
tp509
(dp510
S'debug-info'
p511
I01
sS'image-file'
p512
S'arch/x86/boot/bzImage'
p513
ss(S'build'
p514
g108
tp515
(dp516
S'image-file'
p517
S'arch/sparc/boot/zImage'
p518
ss(S'image'
p519
g313
tp520
(dp521
S'install-stem'
p522
S'vmlinux'
p523
ss(S'base'
p524
g435
NS'parisc64-smp'
p525
tp526
(dp527
S'override-host-type'
p528
S'hppa64-linux-gnu'
p529
sS'cflags'
p530
S'-fno-cse-follow-jumps'
p531
ss(S'build'
p532
g131
tp533
(dp534
S'image-file'
p535
S'vmlinux'
p536
ss(S'description'
p537
g131
NS'powerpc'
p538
tp539
(dp540
S'hardware'
p541
S'uniprocessor 32-bit PowerPC'
p542
ss(S'description'
p543
g313
NS'loongson-2f'
p544
tp545
(dp546
S'hardware'
p547
S'Loongson 2F'
p548
sS'hardware-long'
p549
S'Lemote Loongson 2F systems'
p550
ss(S'image'
p551
g421
NS'octeon'
p552
tp553
(dp554
S'configs'
p555
(lp556
S'kernelarch-mips/config.octeon'
p557
ass(S'build'
p558
g313
tp559
(dp560
S'image-file'
p561
S'vmlinux'
p562
ss(S'description'
p563
g25
NS'loongson-3'
p564
tp565
(dp566
S'hardware'
p567
S'Loongson 3A/3B'
p568
sS'hardware-long'
p569
S'Loongson 3A or 3B based systems (e.g. from Loongson or Lemote)'
p570
ss(S'base'
p571
g5
tp572
(dp573
S'kernel-arch'
p574
S'x86'
p575
sS'featuresets'
p576
(lp577
S'none'
p578
aS'rt'
p579
ass(S'base'
p580
g57
tp581
(dp582
S'kernel-arch'
p583
S'ia64'
p584
sg170
(lp585
g123
asS'compiler'
p586
S'gcc-4.6'
p587
ss(S'image'
p588
g83
NS'armmp-lpae'
p589
tp590
(dp591
S'configs'
p592
(lp593
S'armhf/config.armmp'
p594
aS'armhf/config.lpae'
p595
ass(S'description'
p596
g186
NS'686-pae'
p597
tp598
(dp599
S'hardware'
p600
S'modern PCs'
p601
sS'parts'
p602
(lp603
S'pae'
p604
asS'hardware-long'
p605
S'PCs with one or more processors supporting PAE'
p606
ss(S'image'
p607
g178
NS'r4k-ip22'
p608
tp609
(dp610
S'configs'
p611
(lp612
S'kernelarch-mips/config.r4k-ip22'
p613
ass(S'description'
p614
g165
NS'alpha-smp'
p615
tp616
(dp617
S'hardware'
p618
S'Alpha SMP'
p619
sS'hardware-long'
p620
S'DEC Alpha SMP systems with extended kernel start address (Wildfire, Titan, Marvel)'
p621
ss(S'base'
p622
S's390'
p623
tp624
(dp625
S'kernel-arch'
p626
S's390'
p627
sS'featuresets'
p628
(lp629
ss(g121
g48
g123
tp630
(dp631
g126
I01
sg127
(lp632
S'kirkwood'
p633
aS'orion5x'
p634
aS'versatile'
p635
ass(S'image'
p636
g48
NS'kirkwood'
p637
tp638
(dp639
S'check-size'
p640
I2097080
sS'check-size-with-dtb'
p641
I01
sS'breaks'
p642
S'flash-kernel (<< 3.30~)'
p643
sS'recommends'
p644
S'uboot-mkimage'
p645
sS'configs'
p646
(lp647
S'armel/config-reduced'
p648
aS'armel/config.kirkwood'
p649
ass(S'description'
p650
g178
NS'sb1-bcm91250a'
p651
tp652
(dp653
S'hardware'
p654
S'BCM91250A'
p655
sS'hardware-long'
p656
S'Broadcom BCM91250A systems (aka SWARM)'
p657
ss(S'description'
p658
g178
NS'octeon'
p659
tp660
(dp661
S'hardware'
p662
S'Octeon'
p663
sS'hardware-long'
p664
S'Cavium Networks Octeon'
p665
ss(S'description'
p666
g186
tp667
(dp668
S'part-long-pae'
p669
S'This kernel requires PAE (Physical Address Extension).\nThis feature is supported by the Intel Pentium Pro/II/III/4/4M/D, Xeon,\nCore and Atom; AMD Geode NX, Athlon (K7), Duron, Opteron, Sempron,\nTurion or Phenom; Transmeta Efficeon; VIA C7; and some other processors.'
p670
ss(S'description'
p671
g275
NS'powerpc64le'
p672
tp673
(dp674
S'hardware'
p675
S'Little-endian 64-bit PowerPC'
p676
ss(S'build'
p677
g25
tp678
(dp679
S'image-file'
p680
S'vmlinux'
p681
ss(S'xen'
p682
g5
g33
S'amd64'
p683
tp684
(dp685
S'flavours'
p686
(lp687
S'amd64'
p688
ass(S'image'
p689
g48
tp690
(dp691
S'suggests'
p692
S'fdutils'
p693
sS'configs'
p694
(lp695
S'kernelarch-arm/config'
p696
aS'armel/config'
p697
asS'install-stem'
p698
S'vmlinuz'
p699
ss(S'description'
p700
g25
NS'5kc-malta'
p701
tp702
(dp703
S'hardware'
p704
S'MIPS Malta'
p705
sS'hardware-long'
p706
S'MIPS Malta boards'
p707
ss(S'description'
p708
g313
NS'4kc-malta'
p709
tp710
(dp711
S'hardware'
p712
S'MIPS Malta'
p713
sS'hardware-long'
p714
S'MIPS Malta boards'
p715
ss(S'relations'
p716
g48
tp717
(dp718
S'headers%gcc-4.9'
p719
S'linux-compiler-gcc-4.9-arm'
p720
ss(S'image'
p721
g435
tp722
(dp723
S'suggests'
p724
S'palo'
p725
sS'install-stem'
p726
S'vmlinux'
p727
ss(g121
g421
g123
tp728
(dp729
g126
I01
sg127
(lp730
S'sb1-bcm91250a'
p731
aS'5kc-malta'
p732
aS'octeon'
p733
ass(S'relations'
p734
g435
tp735
(dp736
S'gcc-4.9'
p737
S'gcc-4.9, binutils-hppa64, gcc-4.9-hppa64'
p738
ss(g121
g435
g123
tp739
(dp740
g126
I01
sg127
(lp741
S'parisc'
p742
aS'parisc64-smp'
p743
ass(S'description'
p744
g421
NS'octeon'
p745
tp746
(dp747
S'hardware'
p748
S'Octeon'
p749
sS'hardware-long'
p750
S'Cavium Networks Octeon'
p751
ss(S'image'
p752
g165
tp753
(dp754
S'suggests'
p755
S'aboot, fdutils'
p756
sS'install-stem'
p757
S'vmlinuz'
p758
ss(S'base'
p759
g268
tp760
(dp761
S'kernel-arch'
p762
S'sparc'
p763
sg170
(lp764
g123
ass(S'image'
p765
g186
tp766
(dp767
S'install-stem'
p768
S'vmlinuz'
p769
sS'configs'
p770
(lp771
sS'bootloaders'
p772
(lp773
S'grub-pc'
p774
aS'extlinux'
p775
ass(S'base'
p776
S'or1k'
p777
tp778
(dp779
S'kernel-arch'
p780
S'openrisc'
p781
sS'featuresets'
p782
(lp783
ss(S'base'
p784
g76
tp785
(dp786
S'kernel-arch'
p787
S's390'
p788
sg170
(lp789
g123
asS'compiler'
p790
S'gcc-4.8'
p791
ss(S'description'
p792
g435
NS'parisc'
p793
tp794
(dp795
S'hardware'
p796
S'32-bit PA-RISC'
p797
sS'hardware-long'
p798
S'HP PA-RISC 32-bit systems with max 4 GB RAM'
p799
ss(S'image'
p800
g421
NS'sb1-bcm91250a'
p801
tp802
(dp803
S'configs'
p804
(lp805
S'kernelarch-mips/config.sb1-bcm91250a'
p806
ass(S'image'
p807
g131
NS'powerpc-smp'
p808
tp809
(dp810
S'configs'
p811
(lp812
S'powerpc/config.powerpc'
p813
aS'powerpc/config.powerpc-smp'
p814
ass(g121
g25
g123
tp815
(dp816
g126
I01
sg127
(lp817
S'sb1-bcm91250a'
p818
aS'5kc-malta'
p819
aS'loongson-3'
p820
aS'octeon'
p821
ass(S'image'
p822
g122
tp823
(dp824
S'suggests'
p825
S'mkvmlinuz'
p826
sS'configs'
p827
(lp828
sS'install-stem'
p829
S'vmlinux'
p830
ss(S'image'
p831
g178
tp832
(dp833
S'install-stem'
p834
S'vmlinux'
p835
ss(S'image'
p836
g25
NS'octeon'
p837
tp838
(dp839
S'configs'
p840
(lp841
S'kernelarch-mips/config.octeon'
p842
ass(g121
g108
g123
tp843
(dp844
g126
I01
sg127
(lp845
S'sparc64'
p846
aS'sparc64-smp'
p847
ass(S'base'
p848
g122
tp849
(dp850
S'kernel-arch'
p851
S'powerpc'
p852
sg170
(lp853
g123
ass(g121
g178
g123
tp854
(dp855
g126
I01
sg127
(lp856
S'r4k-ip22'
p857
aS'r5k-ip32'
p858
aS'sb1-bcm91250a'
p859
aS'4kc-malta'
p860
aS'5kc-malta'
p861
aS'octeon'
p862
ass(S'description'
p863
g186
S'none'
p864
S'686-pae'
p865
tp866
(dp867
S'parts'
p868
(lp869
S'xen'
p870
ass(g121
g57
g123
tp871
(dp872
g126
I01
sg127
(lp873
S'itanium'
p874
aS'mckinley'
p875
ass(S'base'
p876
g341
S'none'
p877
tp878
(dp879
S'flavours'
p880
(lp881
S'arm64'
p882
ass(S'build'
p883
g76
tp884
(dp885
S'image-file'
p886
S'arch/s390/boot/image'
p887
ss(g121
g165
g123
tp888
(dp889
g126
I01
sg127
(lp890
S'alpha-generic'
p891
aS'alpha-smp'
p892
ass(S'build'
p893
g178
tp894
(dp895
S'image-file'
p896
S'vmlinux'
p897
ss(S'image'
p898
g421
tp899
(dp900
S'install-stem'
p901
S'vmlinux'
p902
ss(S'image'
p903
g25
NS'sb1-bcm91250a'
p904
tp905
(dp906
S'configs'
p907
(lp908
S'kernelarch-mips/config.sb1-bcm91250a'
p909
ass(S'description'
p910
g122
NS'powerpc64'
p911
tp912
(dp913
S'hardware'
p914
S'64-bit PowerPC'
p915
ss(S'base'
p916
S'x32'
p917
tp918
(dp919
S'kernel-arch'
p920
S'x86'
p921
sS'featuresets'
p922
(lp923
ss(S'build'
p924
g242
tp925
(dp926
S'image-file'
p927
S'arch/sh/boot/zImage'
p928
ss(S'image'
p929
g478
tp930
(dp931
S'suggests'
p932
S'vmelilo, fdutils'
p933
sS'install-stem'
p934
S'vmlinuz'
p935
ss(S'description'
p936
g435
NS'parisc64-smp'
p937
tp938
(dp939
S'hardware'
p940
S'multiprocessor 64-bit PA-RISC'
p941
sS'hardware-long'
p942
S'HP PA-RISC 64-bit SMP systems with support for more than 4 GB RAM'
p943
ss(S'image'
p944
g108
NS'sparc32'
p945
tp946
(dp947
S'image-postproc'
p948
S'sparc32-image-postproc'
p949
ss(S'build'
p950
g421
tp951
(dp952
S'image-file'
p953
S'vmlinux'
p954
ss(S'build'
p955
g83
tp956
(dp957
S'image-file'
p958
S'arch/arm/boot/zImage'
p959
ss(S'image'
p960
g268
NS'sparc64'
p961
tp962
(dp963
S'configs'
p964
(lp965
S'kernelarch-sparc/config-up'
p966
ass(S'build'
p967
g57
tp968
(dp969
S'image-file'
p970
S'vmlinux.gz'
p971
ss(S'base'
p972
g83
tp973
(dp974
S'kernel-arch'
p975
S'arm'
p976
sg170
(lp977
g123
ass(S'image'
p978
g242
tp979
(dp980
S'suggests'
p981
S'fdutils'
p982
sS'install-stem'
p983
S'vmlinuz'
p984
ss(S'base'
p985
g421
tp986
(dp987
S'kernel-arch'
p988
S'mips'
p989
sg170
(lp990
g123
ass(S'base'
p991
g435
tp992
(dp993
S'kernel-arch'
p994
S'parisc'
p995
sg170
(lp996
g123
ass(S'image'
p997
g421
NS'5kc-malta'
p998
tp999
(dp1000
S'configs'
p1001
(lp1002
S'kernelarch-mips/config.5kc-malta'
p1003
ass(S'base'
p1004
g242
tp1005
(dp1006
S'kernel-arch'
p1007
S'sh'
p1008
sg170
(lp1009
g123
ass(S'description'
p1010
g313
NS'loongson-2e'
p1011
tp1012
(dp1013
S'hardware'
p1014
S'Loongson 2E'
p1015
sS'hardware-long'
p1016
S'Lemote Loongson 2E systems'
p1017
ss(S'image'
p1018
g108
tp1019
(dp1020
S'suggests'
p1021
S'silo, fdutils'
p1022
sS'configs'
p1023
(lp1024
sS'install-stem'
p1025
S'vmlinuz'
p1026
ss(S'description'
p1027
tp1028
(dp1029
S'part-long-up'
p1030
S'This kernel is not suitable for SMP (multi-processor,\nmulti-core or hyper-threaded) systems.'
p1031
sS'part-long-xen'
p1032
S'This kernel also runs on a Xen hypervisor.\nIt supports both privileged (dom0) and unprivileged (domU) operation.'
p1033
ss(S'image'
p1034
g313
NS'loongson-2e'
p1035
tp1036
(dp1037
S'configs'
p1038
(lp1039
S'kernelarch-mips/config.loongson-2e'
p1040
ass(S'build'
p1041
g268
tp1042
(dp1043
S'image-file'
p1044
S'arch/sparc/boot/zImage'
p1045
ss(S'relations'
p1046
g83
tp1047
(dp1048
S'headers%gcc-4.9'
p1049
S'linux-compiler-gcc-4.9-arm'
p1050
ss(S'image'
p1051
g313
NS'loongson-2f'
p1052
tp1053
(dp1054
S'configs'
p1055
(lp1056
S'kernelarch-mips/config.loongson-2f'
p1057
asS'recommends'
p1058
S'libc6-loongson2f'
p1059
ss(S'description'
p1060
g178
NS'5kc-malta'
p1061
tp1062
(dp1063
S'hardware'
p1064
S'MIPS Malta (64-bit)'
p1065
sS'hardware-long'
p1066
S'MIPS Malta boards (64-bit)'
p1067
ss(S'description'
p1068
g131
NS'powerpc64'
p1069
tp1070
(dp1071
S'hardware'
p1072
S'64-bit PowerPC'
p1073
ss(S'image'
p1074
g178
NS'r5k-ip32'
p1075
tp1076
(dp1077
S'configs'
p1078
(lp1079
S'kernelarch-mips/config.r5k-ip32'
p1080
ass(S'image'
p1081
g268
tp1082
(dp1083
S'suggests'
p1084
S'silo, fdutils'
p1085
sS'configs'
p1086
(lp1087
sS'install-stem'
p1088
S'vmlinuz'
p1089
ss(S'relations'
p1090
g76
tp1091
(dp1092
S'headers%gcc-4.8'
p1093
S'linux-compiler-gcc-4.8-s390'
p1094
ss(S'description'
p1095
g57
NS'mckinley'
p1096
tp1097
(dp1098
S'hardware'
p1099
S'Itanium II'
p1100
ss(S'base'
p1101
g131
tp1102
(dp1103
S'kernel-arch'
p1104
S'powerpc'
p1105
sg170
(lp1106
g123
ass(S'image'
p1107
g122
NS'powerpc64'
p1108
tp1109
(dp1110
S'configs'
p1111
(lp1112
S'kernelarch-powerpc/config-arch-64'
p1113
aS'kernelarch-powerpc/config-arch-64-be'
p1114
ass(S'description'
p1115
g25
NS'sb1-bcm91250a'
p1116
tp1117
(dp1118
S'hardware'
p1119
S'BCM91250A'
p1120
sS'hardware-long'
p1121
S'Broadcom BCM91250A systems (aka SWARM)'
p1122
ss(S'image'
p1123
g341
NS'arm64'
p1124
tp1125
(dp1126
s(S'description'
p1127
g25
NS'octeon'
p1128
tp1129
(dp1130
S'hardware'
p1131
S'Octeon'
p1132
sS'hardware-long'
p1133
S'Cavium Networks Octeon'
p1134
ss(S'description'
p1135
g165
NS'alpha-generic'
p1136
tp1137
(dp1138
S'hardware'
p1139
S'Alpha'
p1140
sS'hardware-long'
p1141
S'DEC Alpha systems with extended kernel start address (Wildfire, Titan, Marvel)'
p1142
ss(S'image'
p1143
g275
tp1144
(dp1145
S'suggests'
p1146
S'mkvmlinuz'
p1147
sS'configs'
p1148
(lp1149
sS'install-stem'
p1150
S'vmlinux'
p1151
ss(S'description'
p1152
g421
NS'sb1-bcm91250a'
p1153
tp1154
(dp1155
S'hardware'
p1156
S'BCM91250A'
p1157
sS'hardware-long'
p1158
S'Broadcom BCM91250A systems (aka SWARM)'
p1159
ss(S'image'
p1160
g178
NS'sb1-bcm91250a'
p1161
tp1162
(dp1163
S'configs'
p1164
(lp1165
S'kernelarch-mips/config.sb1-bcm91250a'
p1166
ass(S'base'
p1167
g341
tp1168
(dp1169
S'kernel-arch'
p1170
S'arm64'
p1171
sS'featuresets'
p1172
(lp1173
S'none'
p1174
ass(S'image'
p1175
g268
NS'sparc64-smp'
p1176
tp1177
(dp1178
S'configs'
p1179
(lp1180
S'kernelarch-sparc/config-smp'
p1181
ass(S'image'
p1182
g313
NS'loongson-3'
p1183
tp1184
(dp1185
S'configs'
p1186
(lp1187
S'kernelarch-mips/config.loongson-3'
p1188
ass(S'description'
p1189
g48
NS'versatile'
p1190
tp1191
(dp1192
S'hardware'
p1193
S'Versatile'
p1194
sS'hardware-long'
p1195
S'Versatile systems (PB, AB, Qemu)'
p1196
ss(S'description'
p1197
g313
NS'loongson-3'
p1198
tp1199
(dp1200
S'hardware'
p1201
S'Loongson 3A/3B'
p1202
sS'hardware-long'
p1203
S'Loongson 3A or 3B based systems (e.g. from Loongson or Lemote)'
p1204
ss(g121
g40
g123
tp1205
(dp1206
g126
I01
sg127
(lp1207
S'powerpcspe'
p1208
ass(S'image'
p1209
g313
NS'sb1-bcm91250a'
p1210
tp1211
(dp1212
S'configs'
p1213
(lp1214
S'kernelarch-mips/config.sb1-bcm91250a'
p1215
ass(g121
g478
g123
tp1216
(dp1217
g126
I01
sg127
(lp1218
S'm68k'
p1219
ass(S'base'
p1220
g186
g864
tp1221
(dp1222
S'flavours'
p1223
(lp1224
S'586'
p1225
aS'686-pae'
p1226
ass(S'base'
p1227
tp1228
(dp1229
S'arches'
p1230
(lp1231
S'alpha'
p1232
aS'amd64'
p1233
aS'arm64'
p1234
aS'armel'
p1235
aS'armhf'
p1236
aS'hppa'
p1237
aS'i386'
p1238
aS'ia64'
p1239
aS'm68k'
p1240
aS'mips'
p1241
aS'mipsel'
p1242
aS'mips64'
p1243
aS'mips64el'
p1244
aS'or1k'
p1245
aS'powerpc'
p1246
aS'powerpcspe'
p1247
aS'ppc64'
p1248
aS'ppc64el'
p1249
aS's390'
p1250
aS's390x'
p1251
aS'sh4'
p1252
aS'sparc'
p1253
aS'sparc64'
p1254
aS'x32'
p1255
asS'featuresets'
p1256
(lp1257
S'none'
p1258
aS'rt'
p1259
asS'compiler'
p1260
S'gcc-4.9'
p1261
ss(S'image'
p1262
g108
NS'sparc64'
p1263
tp1264
(dp1265
S'configs'
p1266
(lp1267
S'kernelarch-sparc/config-up'
p1268
ass(S'build'
p1269
g478
tp1270
(dp1271
S'image-file'
p1272
S'vmlinux.gz'
p1273
ss(S'build'
p1274
g48
tp1275
(dp1276
S'image-file'
p1277
S'arch/arm/boot/zImage'
p1278
ss(g121
g131
g123
tp1279
(dp1280
g126
I01
sg127
(lp1281
S'powerpc'
p1282
aS'powerpc-smp'
p1283
aS'powerpc64'
p1284
ass(S'image'
p1285
g25
tp1286
(dp1287
S'install-stem'
p1288
S'vmlinux'
p1289
ss(S'base'
p1290
g275
tp1291
(dp1292
S'kernel-arch'
p1293
S'powerpc'
p1294
sg170
(lp1295
g123
ass(S'base'
p1296
g25
tp1297
(dp1298
S'kernel-arch'
p1299
S'mips'
p1300
sg170
(lp1301
g123
ass(S'base'
p1302
g478
tp1303
(dp1304
S'kernel-arch'
p1305
S'm68k'
p1306
sg170
(lp1307
g123
asS'cflags'
p1308
S'-ffreestanding'
p1309
sS'compiler'
p1310
S'gcc-4.8'
p1311
ss(S'description'
p1312
g178
NS'r4k-ip22'
p1313
tp1314
(dp1315
S'hardware'
p1316
S'SGI IP22'
p1317
sS'hardware-long'
p1318
S'SGI IP22 systems (Indy, Indigo2)'
p1319
ss(S'image'
p1320
tp1321
(dp1322
S'initramfs-generators'
p1323
(lp1324
S'initramfs-tools'
p1325
aS'initramfs-fallback'
p1326
asS'type'
p1327
S'plain'
p1328
ss(S'base'
p1329
g40
tp1330
(dp1331
S'kernel-arch'
p1332
S'powerpc'
p1333
sg170
(lp1334
g123
ass(g121
g268
g123
tp1335
(dp1336
g126
I01
sg127
(lp1337
S'sparc64'
p1338
aS'sparc64-smp'
p1339
ass(S'image'
p1340
g25
NS'5kc-malta'
p1341
tp1342
(dp1343
S'configs'
p1344
(lp1345
S'kernelarch-mips/config.5kc-malta'
p1346
ass(S'description'
p1347
g242
NS'sh7785lcr'
p1348
tp1349
(dp1350
S'hardware'
p1351
S'sh7785lcr'
p1352
sS'hardware-long'
p1353
S'Renesas SH7785 reference board'
p1354
ss(S'image'
p1355
g313
NS'4kc-malta'
p1356
tp1357
(dp1358
S'configs'
p1359
(lp1360
S'kernelarch-mips/config.4kc-malta'
p1361
ass(S'build'
p1362
g186
NS'686-pae'
p1363
tp1364
(dp1365
S'debug-info'
p1366
I01
ss(S'build'
p1367
g76
NS's390x'
p1368
tp1369
(dp1370
S'debug-info'
p1371
I01
ss(S'description'
p1372
g48
NS'orion5x'
p1373
tp1374
(dp1375
S'hardware'
p1376
S'Marvell Orion'
p1377
sS'hardware-long'
p1378
S'Marvell Orion 5181, 5182 and 5281 based systems (QNAP TS-109/TS-209, etc)'
p1379
ss(S'image'
p1380
g76
tp1381
(dp1382
S'install-stem'
p1383
S'vmlinuz'
p1384
sS'configs'
p1385
(lp1386
sS'bootloaders'
p1387
(lp1388
S's390-tools'
p1389
ass(S'image'
p1390
g131
NS'powerpc64'
p1391
tp1392
(dp1393
S'configs'
p1394
(lp1395
S'kernelarch-powerpc/config-arch-64'
p1396
aS'kernelarch-powerpc/config-arch-64-be'
p1397
ass(S'image'
p1398
g341
tp1399
(dp1400
S'install-stem'
p1401
S'vmlinuz'
p1402
ss(S'description'
p1403
g268
NS'sparc64-smp'
p1404
tp1405
(dp1406
S'hardware'
p1407
S'multiprocessor 64-bit UltraSPARC'
p1408
ss(S'abi'
p1409
Ng250
tp1410
(dp1411
S'ignore-changes'
p1412
(lp1413
S'*'
p1414
ass(S'image'
p1415
g108
NS'sparc64-smp'
p1416
tp1417
(dp1418
S'configs'
p1419
(lp1420
S'kernelarch-sparc/config-smp'
p1421
ass(S'build'
p1422
g186
tp1423
(dp1424
S'image-file'
p1425
S'arch/x86/boot/bzImage'
p1426
ss(g121
g275
g123
tp1427
(dp1428
g126
I01
sg127
(lp1429
S'powerpc64le'
p1430
asstp1431
Rp1432
.