ccopy_reg
_reconstructor
p0
(cdebian_linux.config
ConfigCore
p1
c__builtin__
dict
p2
(dp3
(S'image'
p4
S'amd64'
p5
tp6
(dp7
S'configs'
p8
(lp9
sS'bootloaders'
p10
(lp11
S'grub-pc'
p12
aS'extlinux'
p13
aS'lilo'
p14
ass(S'description'
p15
S'armel'
p16
NS'versatile'
p17
tp18
(dp19
S'hardware'
p20
S'Versatile'
p21
sS'hardware-long'
p22
S'Versatile systems (PB, AB, Qemu)'
p23
ss(S'description'
p24
S'mips'
p25
NS'sb1-bcm91250a'
p26
tp27
(dp28
S'hardware'
p29
S'BCM91250A'
p30
sS'hardware-long'
p31
S'Broadcom BCM91250A systems (aka SWARM)'
p32
ss(S'description'
p33
S'm68k'
p34
NS'm68k'
p35
tp36
(dp37
S'hardware'
p38
S'Motorola MC68020+ family'
p39
ss(S'base'
p40
g5
S'none'
p41
tp42
(dp43
S'flavours'
p44
(lp45
S'amd64'
p46
ass(S'image'
p47
S'ia64'
p48
tp49
(dp50
S'suggests'
p51
S'fdutils'
p52
sS'bootloaders'
p53
(lp54
S'elilo'
p55
ass(S'image'
p56
g16
NS'ixp4xx'
p57
tp58
(dp59
S'check-size'
p60
S'1441760'
p61
sS'configs'
p62
(lp63
S'armel/config-reduced'
p64
aS'armel/config.ixp4xx'
p65
ass(S'version'
p66
tp67
(dp68
S'abiname'
p69
S'3.11-1'
p70
sS'source'
p71
V3.11.6-2
p72
ss(S'description'
p73
g5
g41
S'amd64'
p74
tp75
(dp76
S'parts'
p77
(lp78
S'xen'
p79
ass(S'description'
p80
S'mipsel'
p81
NS'sb1-bcm91250a'
p82
tp83
(dp84
S'hardware'
p85
S'BCM91250A'
p86
sS'hardware-long'
p87
S'Broadcom BCM91250A systems (aka SWARM)'
p88
ss(S'description'
p89
S'sparc'
p90
NS'sparc64-smp'
p91
tp92
(dp93
S'hardware'
p94
S'multiprocessor 64-bit UltraSPARC'
p95
ss(S'base'
p96
S'ppc64'
p97
S'none'
p98
tp99
(dp100
S'implicit-flavour'
p101
I01
sS'flavours'
p102
(lp103
S'powerpc64'
p104
ass(S'description'
p105
S'alpha'
p106
NS'alpha-generic'
p107
tp108
(dp109
S'hardware'
p110
S'Alpha'
p111
sS'hardware-long'
p112
S'DEC Alpha systems with extended kernel start address (Wildfire, Titan, Marvel)'
p113
ss(S'description'
p114
NS'rt'
p115
tp116
(dp117
S'part-long-rt'
p118
S'This kernel includes the PREEMPT_RT realtime patch set.'
p119
sS'parts'
p120
(lp121
S'rt'
p122
asS'part-short-rt'
p123
S'PREEMPT_RT'
p124
ss(S'base'
p125
g106
tp126
(dp127
S'kernel-arch'
p128
S'alpha'
p129
sS'featuresets'
p130
(lp131
g98
ass(g96
S'armhf'
p132
g98
tp133
(dp134
g101
I01
sg102
(lp135
S'armmp'
p136
aS'armmp-lpae'
p137
ass(S'description'
p138
S'sh4'
p139
NS'sh7785lcr'
p140
tp141
(dp142
S'hardware'
p143
S'sh7785lcr'
p144
sS'hardware-long'
p145
S'Renesas SH7785 reference board'
p146
ss(S'base'
p147
S'i386'
p148
S'rt'
p149
tp150
(dp151
S'flavours'
p152
(lp153
S'686-pae'
p154
ass(g96
S'powerpc'
p155
g98
tp156
(dp157
g101
I01
sg102
(lp158
S'powerpc'
p159
aS'powerpc-smp'
p160
aS'powerpc64'
p161
ass(S'image'
p162
g155
tp163
(dp164
S'suggests'
p165
S'mkvmlinuz'
p166
ss(S'build'
p167
g16
NS'kirkwood'
p168
tp169
(dp170
S'image-file'
p171
S'arch/arm/boot/zImage'
p172
ss(S'base'
p173
g5
S'rt'
p174
tp175
(dp176
S'flavours'
p177
(lp178
S'amd64'
p179
ass(S'description'
p180
g132
NS'armmp-lpae'
p181
tp182
(dp183
S'hardware'
p184
S'ARMv7 multiplatform compatible SoCs supporting LPAE'
p185
sS'hardware-long'
p186
S'ARMv7 multiplatform kernel supporting LPAE'
p187
ss(S'description'
p188
S'hppa'
p189
NS'parisc64'
p190
tp191
(dp192
S'hardware'
p193
S'64-bit PA-RISC'
p194
ss(S'description'
p195
g148
S'none'
p196
S'amd64'
p197
tp198
(dp199
S'parts'
p200
(lp201
S'xen'
p202
ass(S'build'
p203
g132
NS'armmp'
p204
tp205
(dp206
S'image-file'
p207
S'arch/arm/boot/zImage'
p208
ss(S'base'
p209
S'arm64'
p210
tp211
(dp212
S'kernel-arch'
p213
S'arm64'
p214
sS'featuresets'
p215
(lp216
ss(S'base'
p217
g148
tp218
(dp219
S'kernel-arch'
p220
S'x86'
p221
sS'featuresets'
p222
(lp223
S'none'
p224
aS'rt'
p225
ass(S'base'
p226
g81
tp227
(dp228
S'kernel-arch'
p229
S'mips'
p230
sg130
(lp231
g98
ass(S'build'
p232
g139
NS'sh7751r'
p233
tp234
(dp235
S'image-file'
p236
S'arch/sh/boot/zImage'
p237
ss(S'abi'
p238
g132
tp239
(dp240
S'abiname'
p241
S'1a'
p242
ss(S'description'
p243
g25
NS'sb1a-bcm91480b'
p244
tp245
(dp246
S'hardware'
p247
S'BCM91480B'
p248
sS'hardware-long'
p249
S'Broadcom BCM91480B systems (aka BigSur)'
p250
ss(g96
g81
g98
tp251
(dp252
g101
I01
sg102
(lp253
S'r5k-cobalt'
p254
aS'sb1-bcm91250a'
p255
aS'sb1a-bcm91480b'
p256
aS'4kc-malta'
p257
aS'5kc-malta'
p258
aS'loongson-2f'
p259
ass(S'build'
p260
S's390x'
p261
NS's390x'
p262
tp263
(dp264
S'debug-info'
p265
I01
ss(S'description'
p266
S'powerpcspe'
p267
tp268
(dp269
S'hardware'
p270
S'32-bit PowerPC with SPE (instead of AltiVec) with SMP support'
p271
ss(S'relations'
p272
tp273
(dp274
S'gcc-4.8'
p275
S'gcc-4.8'
p276
sS'initramfs-fallback'
p277
S'linux-initramfs-tool'
p278
sS'gcc-4.7'
p279
S'gcc-4.7'
p280
sS'gcc-4.6'
p281
S'gcc-4.6'
p282
sS'gcc-4.4'
p283
S'gcc-4.4'
p284
sS'initramfs-tools'
p285
S'initramfs-tools (>= 0.110~)'
p286
ss(S'description'
p287
g48
NS'mckinley'
p288
tp289
(dp290
S'hardware'
p291
S'Itanium II'
p292
ss(S'description'
p293
g16
NS'iop32x'
p294
tp295
(dp296
S'hardware'
p297
S'IOP32x'
p298
sS'hardware-long'
p299
S'IOP32x based systems (Thecus N2100, etc)'
p300
ss(S'description'
p301
g16
NS'ixp4xx'
p302
tp303
(dp304
S'hardware'
p305
S'IXP4xx'
p306
sS'hardware-long'
p307
S'IXP4xx based systems (Linksys NSLU2, etc)'
p308
ss(g96
g139
g98
tp309
(dp310
g101
I01
sg102
(lp311
S'sh7751r'
p312
aS'sh7785lcr'
p313
ass(S'description'
p314
g25
NS'5kc-malta'
p315
tp316
(dp317
S'hardware'
p318
S'MIPS Malta (64-bit)'
p319
sS'hardware-long'
p320
S'MIPS Malta boards (64-bit)'
p321
ss(S'description'
p322
g189
NS'parisc64-smp'
p323
tp324
(dp325
S'hardware'
p326
S'multiprocessor 64-bit PA-RISC'
p327
ss(S'description'
p328
S'sparc64'
p329
NS'sparc64'
p330
tp331
(dp332
S'hardware'
p333
S'uniprocessor 64-bit UltraSPARC'
p334
ss(S'base'
p335
g189
NS'parisc64-smp'
p336
tp337
(dp338
S'override-host-type'
p339
S'hppa64-linux-gnu'
p340
sS'cflags'
p341
S'-fno-cse-follow-jumps'
p342
ss(S'description'
p343
g5
NS'amd64'
p344
tp345
(dp346
S'hardware'
p347
S'64-bit PCs'
p348
sS'hardware-long'
p349
S'PCs with AMD64, Intel 64 or VIA Nano processors'
p350
ss(S'base'
p351
g16
tp352
(dp353
S'kernel-arch'
p354
S'arm'
p355
sg130
(lp356
g98
ass(S'description'
p357
g106
NS'alpha-legacy'
p358
tp359
(dp360
S'hardware'
p361
S'Alpha Legacy'
p362
sS'hardware-long'
p363
S'DEC Alpha systems with legacy kernel start address'
p364
ss(S'base'
p365
g90
tp366
(dp367
S'kernel-arch'
p368
S'sparc'
p369
sg130
(lp370
g98
ass(S'description'
p371
S's390'
p372
NS's390'
p373
tp374
(dp375
S'hardware'
p376
S'IBM S/390'
p377
ss(S'image'
p378
g81
NS'5kc-malta'
p379
tp380
(dp381
S'configs'
p382
(lp383
S'mips/config.5kc-malta'
p384
ass(S'image'
p385
g148
NS'amd64'
p386
tp387
(dp388
S'configs'
p389
(lp390
S'kernelarch-x86/config-arch-64'
p391
asS'recommends'
p392
S'libc6-i686'
p393
ss(S'image'
p394
g139
NS'sh7785lcr'
p395
tp396
(dp397
S'check-size'
p398
S'4194304'
p399
sS'recommends'
p400
S'uboot-mkimage'
p401
ss(S'build'
p402
g372
NS's390x'
p403
tp404
(dp405
S'debug-info'
p406
I01
ss(S'description'
p407
g16
NS'orion5x'
p408
tp409
(dp410
S'hardware'
p411
S'Marvell Orion'
p412
sS'hardware-long'
p413
S'Marvell Orion 5181, 5182 and 5281 based systems (QNAP TS-109/TS-209, etc)'
p414
ss(g96
g372
g98
tp415
(dp416
g101
I01
sg102
(lp417
S's390x'
p418
ass(g96
g261
g98
tp419
(dp420
g101
I01
sg102
(lp421
S's390x'
p422
ass(S'base'
p423
g25
tp424
(dp425
S'kernel-arch'
p426
S'mips'
p427
sg130
(lp428
g98
ass(S'build'
p429
g5
tp430
(dp431
S'debug-info'
p432
I01
ss(S'image'
p433
g81
tp434
(dp435
S'initramfs'
p436
I00
ss(S'description'
p437
g155
NS'powerpc'
p438
tp439
(dp440
S'hardware'
p441
S'uniprocessor 32-bit PowerPC'
p442
ss(S'description'
p443
g148
NS'486'
p444
tp445
(dp446
S'hardware'
p447
S'older PCs'
p448
sS'parts'
p449
(lp450
S'up'
p451
asS'hardware-long'
p452
S'PCs with a single processor not supporting PAE'
p453
ss(S'description'
p454
g106
NS'alpha-smp'
p455
tp456
(dp457
S'hardware'
p458
S'Alpha SMP'
p459
sS'hardware-long'
p460
S'DEC Alpha SMP systems with extended kernel start address (Wildfire, Titan, Marvel)'
p461
ss(S'base'
p462
g5
tp463
(dp464
S'kernel-arch'
p465
S'x86'
p466
sS'featuresets'
p467
(lp468
S'none'
p469
aS'rt'
p470
ass(S'base'
p471
g48
tp472
(dp473
S'kernel-arch'
p474
S'ia64'
p475
sg130
(lp476
g98
asS'compiler'
p477
S'gcc-4.6'
p478
ss(S'abi'
p479
Ng115
tp480
(dp481
S'ignore-changes'
p482
(lp483
S'*'
p484
ass(S'base'
p485
g372
tp486
(dp487
S'kernel-arch'
p488
S's390'
p489
sg130
(lp490
g98
ass(g96
g16
g98
tp491
(dp492
g101
I01
sg102
(lp493
S'iop32x'
p494
aS'ixp4xx'
p495
aS'kirkwood'
p496
aS'mv78xx0'
p497
aS'orion5x'
p498
aS'versatile'
p499
ass(S'description'
p500
g16
NS'kirkwood'
p501
tp502
(dp503
S'hardware'
p504
S'Marvell Kirkwood'
p505
sS'hardware-long'
p506
S'Marvell Kirkwood based systems (SheevaPlug, QNAP TS-119/TS-219, etc)'
p507
ss(S'description'
p508
g148
tp509
(dp510
S'part-long-pae'
p511
S'This kernel requires PAE (Physical Address Extension).\nThis feature is supported by the Intel Pentium Pro/II/III/4/4M/D, Xeon,\nCore and Atom; AMD Geode NX, Athlon (K7), Duron, Opteron, Sempron,\nTurion or Phenom; Transmeta Efficeon; VIA C7; and some other processors.'
p512
ss(S'base'
p513
NS'rt'
p514
tp515
(dp516
S'enabled'
p517
I00
ss(S'base'
p518
g148
g196
tp519
(dp520
S'flavours'
p521
(lp522
S'486'
p523
aS'686-pae'
p524
aS'amd64'
p525
ass(S'xen'
p526
g5
g41
S'amd64'
p527
tp528
(dp529
S'flavours'
p530
(lp531
S'amd64'
p532
ass(S'image'
p533
g16
tp534
(dp535
S'suggests'
p536
S'fdutils'
p537
ss(S'image'
p538
g372
tp539
(dp540
S'bootloaders'
p541
(lp542
S's390-tools'
p543
ass(S'description'
p544
g329
NS'sparc64-smp'
p545
tp546
(dp547
S'hardware'
p548
S'multiprocessor 64-bit UltraSPARC'
p549
ss(S'image'
p550
g189
tp551
(dp552
S'suggests'
p553
S'palo'
p554
ss(S'description'
p555
g25
NS'r4k-ip22'
p556
tp557
(dp558
S'hardware'
p559
S'SGI IP22'
p560
sS'hardware-long'
p561
S'SGI IP22 systems (Indy, Indigo2)'
p562
ss(S'image'
p563
g267
tp564
(dp565
S'suggests'
p566
S'mkvmlinuz'
p567
sS'configs'
p568
(lp569
S'powerpc/config'
p570
aS'powerpcspe/config.powerpcspe'
p571
ass(S'relations'
p572
g189
tp573
(dp574
S'gcc-4.4'
p575
S'gcc-4.4, binutils-hppa64, gcc-4.4-hppa64'
p576
ss(S'image'
p577
g261
NS's390x'
p578
tp579
(dp580
S'configs'
p581
(lp582
S's390/config.s390x'
p583
ass(S'build'
p584
g139
NS'sh7785lcr'
p585
tp586
(dp587
S'image-file'
p588
S'arch/sh/boot/zImage'
p589
ss(S'image'
p590
g90
NS'sparc32'
p591
tp592
(dp593
S'image-postproc'
p594
S'sparc32-image-postproc'
p595
ss(S'description'
p596
g97
NS'powerpc64'
p597
tp598
(dp599
S'hardware'
p600
S'64-bit PowerPC'
p601
ss(g96
g189
g98
tp602
(dp603
g101
I01
sg102
(lp604
S'parisc'
p605
aS'parisc-smp'
p606
aS'parisc64'
p607
aS'parisc64-smp'
p608
ass(S'image'
p609
g106
tp610
(dp611
S'suggests'
p612
S'aboot, fdutils'
p613
ss(S'base'
p614
g329
tp615
(dp616
S'kernel-arch'
p617
S'sparc'
p618
sg130
(lp619
g98
ass(S'image'
p620
g148
tp621
(dp622
S'configs'
p623
(lp624
sS'bootloaders'
p625
(lp626
S'grub-pc'
p627
aS'extlinux'
p628
aS'lilo'
p629
ass(S'image'
p630
g16
NS'kirkwood'
p631
tp632
(dp633
S'check-size'
p634
S'2097080'
p635
sS'recommends'
p636
S'uboot-mkimage'
p637
ss(S'description'
p638
g139
NS'sh7751r'
p639
tp640
(dp641
S'hardware'
p642
S'sh7751r'
p643
sS'hardware-long'
p644
S'Renesas SH7751R R2D plus board'
p645
ss(S'base'
p646
g261
tp647
(dp648
S'kernel-arch'
p649
S's390'
p650
sg130
(lp651
g98
ass(S'image'
p652
g97
tp653
(dp654
S'suggests'
p655
S'mkvmlinuz'
p656
sS'configs'
p657
(lp658
S'powerpc/config'
p659
ass(S'image'
p660
g25
tp661
(dp662
S'initramfs'
p663
I00
ss(S'description'
p664
g90
NS'sparc64'
p665
tp666
(dp667
S'hardware'
p668
S'uniprocessor 64-bit UltraSPARC'
p669
ss(g96
g90
g98
tp670
(dp671
g101
I01
sg102
(lp672
S'sparc64'
p673
aS'sparc64-smp'
p674
ass(S'base'
p675
g97
tp676
(dp677
S'kernel-arch'
p678
S'powerpc'
p679
sg130
(lp680
g98
ass(g96
g106
g98
tp681
(dp682
g101
I01
sg102
(lp683
S'alpha-generic'
p684
aS'alpha-smp'
p685
aS'alpha-legacy'
p686
ass(S'description'
p687
g148
g196
S'686-pae'
p688
tp689
(dp690
S'parts'
p691
(lp692
S'xen'
p693
ass(S'base'
p694
S'x32'
p695
tp696
(dp697
S'kernel-arch'
p698
S'x86'
p699
sS'featuresets'
p700
(lp701
ss(S'build'
p702
g16
NS'orion5x'
p703
tp704
(dp705
S'image-file'
p706
S'arch/arm/boot/zImage'
p707
ss(g96
g25
g98
tp708
(dp709
g101
I01
sg102
(lp710
S'r4k-ip22'
p711
aS'r5k-ip32'
p712
aS'sb1-bcm91250a'
p713
aS'sb1a-bcm91480b'
p714
aS'4kc-malta'
p715
aS'5kc-malta'
p716
aS'octeon'
p717
ass(S'description'
p718
g81
NS'4kc-malta'
p719
tp720
(dp721
S'hardware'
p722
S'MIPS Malta'
p723
sS'hardware-long'
p724
S'MIPS Malta boards'
p725
ss(S'description'
p726
g148
NS'amd64'
p727
tp728
(dp729
S'hardware'
p730
S'64-bit PCs'
p731
sS'parts'
p732
(lp733
S'xen'
p734
asS'hardware-long'
p735
S'PCs with AMD64, Intel 64 or VIA Nano processors'
p736
ss(S'image'
p737
g5
NS'amd64'
p738
tp739
(dp740
S'configs'
p741
(lp742
S'kernelarch-x86/config-arch-64'
p743
ass(S'build'
p744
g132
NS'armmp-lpae'
p745
tp746
(dp747
S'image-file'
p748
S'arch/arm/boot/zImage'
p749
ss(S'description'
p750
g16
NS'mv78xx0'
p751
tp752
(dp753
S'hardware'
p754
S'Marvell 78xx0'
p755
sS'hardware-long'
p756
S'Marvell DB-78xx0-BP Development Board'
p757
ss(g96
g48
g98
tp758
(dp759
g101
I01
sg102
(lp760
S'itanium'
p761
aS'mckinley'
p762
ass(S'image'
p763
g34
tp764
(dp765
S'suggests'
p766
S'vmelilo, fdutils'
p767
ss(S'description'
p768
g372
NS's390x'
p769
tp770
(dp771
S'hardware'
p772
S'IBM zSeries'
p773
ss(S'description'
p774
g25
NS'4kc-malta'
p775
tp776
(dp777
S'hardware'
p778
S'MIPS Malta'
p779
sS'hardware-long'
p780
S'MIPS Malta boards'
p781
ss(S'base'
p782
g189
NS'parisc64'
p783
tp784
(dp785
S'override-host-type'
p786
S'hppa64-linux-gnu'
p787
sS'cflags'
p788
S'-fno-cse-follow-jumps'
p789
ss(S'base'
p790
g132
tp791
(dp792
S'kernel-arch'
p793
S'arm'
p794
sg130
(lp795
g98
ass(S'description'
p796
g25
NS'octeon'
p797
tp798
(dp799
S'hardware'
p800
S'Octeon'
p801
sS'hardware-long'
p802
S'Cavium Networks Octeon'
p803
ss(S'image'
p804
g139
tp805
(dp806
S'suggests'
p807
S'fdutils'
p808
ss(S'base'
p809
g189
tp810
(dp811
S'kernel-arch'
p812
S'parisc'
p813
sg130
(lp814
g98
asS'compiler'
p815
S'gcc-4.4'
p816
ss(S'base'
p817
g139
tp818
(dp819
S'kernel-arch'
p820
S'sh'
p821
sg130
(lp822
g98
asS'compiler'
p823
S'gcc-4.7'
p824
ss(S'image'
p825
g81
NS'4kc-malta'
p826
tp827
(dp828
S'configs'
p829
(lp830
S'mips/config.4kc-malta'
p831
ass(S'description'
p832
g132
NS'armmp'
p833
tp834
(dp835
S'hardware'
p836
S'ARMv7 multiplatform compatible SoCs'
p837
sS'hardware-long'
p838
S'ARMv7 multiplatform kernel for Marvell Armada 370/xp, Freescale iMX5x/iMX6'
p839
ss(S'image'
p840
g90
tp841
(dp842
S'suggests'
p843
S'silo, fdutils'
p844
ss(S'description'
p845
g81
NS'loongson-2f'
p846
tp847
(dp848
S'hardware'
p849
S'Loongson 2F'
p850
sS'hardware-long'
p851
S'Lemote Loongson 2F systems'
p852
ss(S'description'
p853
g189
NS'parisc'
p854
tp855
(dp856
S'hardware'
p857
S'32-bit PA-RISC'
p858
ss(S'description'
p859
tp860
(dp861
S'part-long-up'
p862
S'This kernel is not suitable for SMP (multi-processor,\nmulti-core or hyper-threaded) systems.'
p863
sS'part-long-xen'
p864
S'This kernel also runs on a Xen hypervisor.\nIt supports both privileged (dom0) and unprivileged (domU) operation.'
p865
ss(S'image'
p866
g16
NS'iop32x'
p867
tp868
(dp869
S'check-size'
p870
S'1441784'
p871
sS'configs'
p872
(lp873
S'armel/config-reduced'
p874
aS'armel/config.iop32x'
p875
ass(S'image'
p876
g148
NS'686-pae'
p877
tp878
(dp879
S'configs'
p880
(lp881
S'kernelarch-x86/config-arch-32'
p882
aS'i386/config.686-pae'
p883
asS'recommends'
p884
S'libc6-i686'
p885
ss(S'image'
p886
g329
tp887
(dp888
S'suggests'
p889
S'silo, fdutils'
p890
sS'configs'
p891
(lp892
S'sparc/config'
p893
ass(S'description'
p894
g148
NS'686-pae'
p895
tp896
(dp897
S'hardware'
p898
S'modern PCs'
p899
sS'parts'
p900
(lp901
S'pae'
p902
asS'hardware-long'
p903
S'PCs with one or more processors supporting PAE'
p904
ss(S'base'
p905
g155
tp906
(dp907
S'kernel-arch'
p908
S'powerpc'
p909
sg130
(lp910
g98
ass(S'image'
p911
g329
NS'sparc64'
p912
tp913
(dp914
S'configs'
p915
(lp916
S'sparc/config.sparc64'
p917
ass(S'image'
p918
g81
NS'loongson-2f'
p919
tp920
(dp921
S'recommends'
p922
S'libc6-loongson2f'
p923
ss(S'description'
p924
g81
NS'sb1a-bcm91480b'
p925
tp926
(dp927
S'hardware'
p928
S'BCM91480B'
p929
sS'hardware-long'
p930
S'Broadcom BCM91480B systems (aka BigSur)'
p931
ss(S'image'
p932
g155
NS'powerpc-smp'
p933
tp934
(dp935
S'configs'
p936
(lp937
S'powerpc/config.powerpc'
p938
aS'powerpc/config.powerpc-smp'
p939
ass(S'image'
p940
g132
tp941
(dp942
S'suggests'
p943
S'fdutils'
p944
sS'configs'
p945
(lp946
S'armel/config'
p947
aS'armhf/config'
p948
ass(S'abi'
p949
tp950
(dp951
S'abiname'
p952
S'1'
p953
sS'ignore-changes'
p954
(lp955
S'module:net/l2tp/*'
p956
ass(S'description'
p957
g25
NS'r5k-ip32'
p958
tp959
(dp960
S'hardware'
p961
S'SGI IP32'
p962
sS'hardware-long'
p963
S'SGI IP32 systems (O2)'
p964
ss(g96
g267
g98
tp965
(dp966
g101
I01
sg102
(lp967
S'powerpcspe'
p968
ass(g96
g34
g98
tp969
(dp970
g101
I01
sg102
(lp971
S'm68k'
p972
ass(S'description'
p973
g155
NS'powerpc64'
p974
tp975
(dp976
S'hardware'
p977
S'64-bit PowerPC'
p978
ss(S'base'
p979
tp980
(dp981
S'arches'
p982
(lp983
S'alpha'
p984
aS'amd64'
p985
aS'arm64'
p986
aS'armel'
p987
aS'armhf'
p988
aS'hppa'
p989
aS'i386'
p990
aS'ia64'
p991
aS'm68k'
p992
aS'mips'
p993
aS'mipsel'
p994
aS'powerpc'
p995
aS'powerpcspe'
p996
aS'ppc64'
p997
aS's390'
p998
aS's390x'
p999
aS'sh4'
p1000
aS'sparc'
p1001
aS'sparc64'
p1002
aS'x32'
p1003
asS'featuresets'
p1004
(lp1005
S'none'
p1006
aS'rt'
p1007
asS'compiler'
p1008
S'gcc-4.8'
p1009
ss(S'image'
p1010
g97
NS'powerpc64'
p1011
tp1012
(dp1013
S'configs'
p1014
(lp1015
S'powerpc/config.powerpc64'
p1016
ass(S'description'
p1017
g90
NS'sparc32'
p1018
tp1019
(dp1020
S'hardware'
p1021
S'uniprocessor sparc32 (sun4m)'
p1022
ss(S'description'
p1023
g81
NS'r5k-cobalt'
p1024
tp1025
(dp1026
S'hardware'
p1027
S'Cobalt'
p1028
sS'hardware-long'
p1029
S'Cobalt systems (Qube, RaQ, Qube2, RaQ2)'
p1030
ss(S'description'
p1031
g261
NS's390x'
p1032
tp1033
(dp1034
S'hardware'
p1035
S'IBM zSeries'
p1036
ss(S'image'
p1037
g81
NS'sb1a-bcm91480b'
p1038
tp1039
(dp1040
S'configs'
p1041
(lp1042
S'mips/config.sb1a-bcm91480b'
p1043
ass(S'description'
p1044
g81
NS'5kc-malta'
p1045
tp1046
(dp1047
S'hardware'
p1048
S'MIPS Malta (64-bit)'
p1049
sS'hardware-long'
p1050
S'MIPS Malta boards (64-bit)'
p1051
ss(S'description'
p1052
g48
NS'itanium'
p1053
tp1054
(dp1055
S'hardware'
p1056
S'Itanium'
p1057
ss(S'base'
p1058
g34
tp1059
(dp1060
S'kernel-arch'
p1061
S'm68k'
p1062
sg130
(lp1063
g98
asS'cflags'
p1064
S'-ffreestanding'
p1065
sS'compiler'
p1066
S'gcc-4.8'
p1067
ss(S'image'
p1068
tp1069
(dp1070
S'initramfs-generators'
p1071
(lp1072
S'initramfs-tools'
p1073
aS'initramfs-fallback'
p1074
asS'type'
p1075
S'plain'
p1076
ss(S'base'
p1077
g267
tp1078
(dp1079
S'kernel-arch'
p1080
S'powerpc'
p1081
sg130
(lp1082
g98
ass(g96
g329
g98
tp1083
(dp1084
g101
I01
sg102
(lp1085
S'sparc64'
p1086
aS'sparc64-smp'
p1087
ass(S'build'
p1088
g16
NS'mv78xx0'
p1089
tp1090
(dp1091
S'image-file'
p1092
S'arch/arm/boot/zImage'
p1093
ss(S'build'
p1094
g148
NS'686-pae'
p1095
tp1096
(dp1097
S'debug-info'
p1098
I01
ss(S'image'
p1099
g132
NS'armmp-lpae'
p1100
tp1101
(dp1102
S'configs'
p1103
(lp1104
S'armhf/config.armmp'
p1105
aS'armhf/config.lpae'
p1106
ass(S'image'
p1107
g148
NS'486'
p1108
tp1109
(dp1110
S'configs'
p1111
(lp1112
S'kernelarch-x86/config-arch-32'
p1113
aS'i386/config.486'
p1114
ass(S'description'
p1115
g155
NS'powerpc-smp'
p1116
tp1117
(dp1118
S'hardware'
p1119
S'multiprocessor 32-bit PowerPC'
p1120
ss(S'image'
p1121
g261
tp1122
(dp1123
S'configs'
p1124
(lp1125
S's390/config'
p1126
asS'bootloaders'
p1127
(lp1128
S's390-tools'
p1129
ass(S'build'
p1130
g16
NS'iop32x'
p1131
tp1132
(dp1133
S'image-file'
p1134
S'arch/arm/boot/zImage'
p1135
ss(S'image'
p1136
g16
NS'orion5x'
p1137
tp1138
(dp1139
S'check-size'
p1140
S'1572792'
p1141
sS'configs'
p1142
(lp1143
S'armel/config-reduced'
p1144
aS'armel/config.orion5x'
p1145
asS'recommends'
p1146
S'uboot-mkimage'
p1147
ss(S'image'
p1148
g81
NS'sb1-bcm91250a'
p1149
tp1150
(dp1151
S'configs'
p1152
(lp1153
S'mips/config.sb1-bcm91250a'
p1154
ass(S'build'
p1155
g16
NS'ixp4xx'
p1156
tp1157
(dp1158
S'image-file'
p1159
S'arch/arm/boot/zImage'
p1160
ss(S'description'
p1161
g189
NS'parisc-smp'
p1162
tp1163
(dp1164
S'hardware'
p1165
S'multiprocessor 32-bit PA-RISC'
p1166
ss(S'image'
p1167
g329
NS'sparc64-smp'
p1168
tp1169
(dp1170
S'configs'
p1171
(lp1172
S'sparc/config.sparc64-smp'
p1173
asstp1174
Rp1175
.