ccopy_reg
_reconstructor
p0
(cdebian_linux.config
ConfigCore
p1
c__builtin__
dict
p2
(dp3
(S'image'
p4
S'amd64'
p5
tp6
(dp7
S'configs'
p8
(lp9
sS'bootloaders'
p10
(lp11
S'grub-pc'
p12
aS'extlinux'
p13
aS'lilo'
p14
ass(S'description'
p15
S'armel'
p16
NS'versatile'
p17
tp18
(dp19
S'hardware'
p20
S'Versatile'
p21
sS'hardware-long'
p22
S'Versatile systems (PB, AB, Qemu)'
p23
ss(S'description'
p24
S'mips'
p25
NS'sb1-bcm91250a'
p26
tp27
(dp28
S'hardware'
p29
S'BCM91250A'
p30
sS'hardware-long'
p31
S'Broadcom BCM91250A systems (aka SWARM)'
p32
ss(S'description'
p33
S'm68k'
p34
NS'm68k'
p35
tp36
(dp37
S'hardware'
p38
S'Motorola MC68020+ family'
p39
ss(S'base'
p40
g5
S'none'
p41
tp42
(dp43
S'flavours'
p44
(lp45
S'amd64'
p46
ass(S'image'
p47
S'ia64'
p48
tp49
(dp50
S'suggests'
p51
S'fdutils'
p52
sS'bootloaders'
p53
(lp54
S'elilo'
p55
ass(S'image'
p56
g16
NS'ixp4xx'
p57
tp58
(dp59
S'check-size'
p60
S'1441760'
p61
sS'configs'
p62
(lp63
S'armel/config-reduced'
p64
aS'armel/config-tiny'
p65
aS'armel/config.ixp4xx'
p66
ass(S'version'
p67
tp68
(dp69
S'abiname'
p70
V3.13-rc6
p71
sS'source'
p72
V3.13~rc6-1~exp1
p73
sS'upstream'
p74
g71
ss(S'image'
p75
S's390'
p76
NS's390x'
p77
tp78
(dp79
S'configs'
p80
(lp81
S's390x/config.s390x'
p82
ass(S'description'
p83
g5
g41
S'amd64'
p84
tp85
(dp86
S'parts'
p87
(lp88
S'xen'
p89
ass(S'description'
p90
S'mipsel'
p91
NS'sb1-bcm91250a'
p92
tp93
(dp94
S'hardware'
p95
S'BCM91250A'
p96
sS'hardware-long'
p97
S'Broadcom BCM91250A systems (aka SWARM)'
p98
ss(S'description'
p99
S'sparc'
p100
NS'sparc64-smp'
p101
tp102
(dp103
S'hardware'
p104
S'multiprocessor 64-bit UltraSPARC'
p105
ss(S'base'
p106
S'ppc64'
p107
S'none'
p108
tp109
(dp110
S'implicit-flavour'
p111
I01
sS'flavours'
p112
(lp113
S'powerpc64'
p114
ass(S'description'
p115
S'alpha'
p116
NS'alpha-generic'
p117
tp118
(dp119
S'hardware'
p120
S'Alpha'
p121
sS'hardware-long'
p122
S'DEC Alpha systems with extended kernel start address (Wildfire, Titan, Marvel)'
p123
ss(S'description'
p124
NS'rt'
p125
tp126
(dp127
S'part-long-rt'
p128
S'This kernel includes the PREEMPT_RT realtime patch set.'
p129
sS'parts'
p130
(lp131
S'rt'
p132
asS'part-short-rt'
p133
S'PREEMPT_RT'
p134
ss(S'base'
p135
g116
tp136
(dp137
S'kernel-arch'
p138
S'alpha'
p139
sS'featuresets'
p140
(lp141
g108
ass(g106
S'armhf'
p142
g108
tp143
(dp144
g111
I01
sg112
(lp145
S'armmp'
p146
aS'armmp-lpae'
p147
ass(S'description'
p148
S'sh4'
p149
NS'sh7785lcr'
p150
tp151
(dp152
S'hardware'
p153
S'sh7785lcr'
p154
sS'hardware-long'
p155
S'Renesas SH7785 reference board'
p156
ss(S'base'
p157
S'i386'
p158
S'rt'
p159
tp160
(dp161
S'flavours'
p162
(lp163
S'686-pae'
p164
ass(S'relations'
p165
g158
tp166
(dp167
S'headers%gcc-4.8'
p168
S'linux-compiler-gcc-4.8-x86'
p169
ss(S'image'
p170
S'powerpc'
p171
tp172
(dp173
S'suggests'
p174
S'mkvmlinuz'
p175
ss(S'build'
p176
g16
NS'kirkwood'
p177
tp178
(dp179
S'image-file'
p180
S'arch/arm/boot/zImage'
p181
ss(S'base'
p182
g5
S'rt'
p183
tp184
(dp185
S'flavours'
p186
(lp187
S'amd64'
p188
ass(S'description'
p189
g142
NS'armmp-lpae'
p190
tp191
(dp192
S'hardware'
p193
S'ARMv7 multiplatform compatible SoCs supporting LPAE'
p194
sS'hardware-long'
p195
S'ARMv7 multiplatform kernel supporting LPAE'
p196
ss(S'description'
p197
g158
S'none'
p198
S'amd64'
p199
tp200
(dp201
S'parts'
p202
(lp203
S'xen'
p204
ass(S'build'
p205
g142
NS'armmp'
p206
tp207
(dp208
S'image-file'
p209
S'arch/arm/boot/zImage'
p210
ss(S'base'
p211
S'arm64'
p212
tp213
(dp214
S'kernel-arch'
p215
S'arm64'
p216
sS'featuresets'
p217
(lp218
ss(S'base'
p219
g158
tp220
(dp221
S'kernel-arch'
p222
S'x86'
p223
sS'featuresets'
p224
(lp225
S'none'
p226
aS'rt'
p227
ass(S'base'
p228
g91
tp229
(dp230
S'kernel-arch'
p231
S'mips'
p232
sg140
(lp233
g108
ass(S'relations'
p234
g5
tp235
(dp236
S'headers%gcc-4.8'
p237
S'linux-compiler-gcc-4.8-x86'
p238
ss(S'build'
p239
g149
NS'sh7751r'
p240
tp241
(dp242
S'image-file'
p243
S'arch/sh/boot/zImage'
p244
ss(S'description'
p245
g25
NS'sb1a-bcm91480b'
p246
tp247
(dp248
S'hardware'
p249
S'BCM91480B'
p250
sS'hardware-long'
p251
S'Broadcom BCM91480B systems (aka BigSur)'
p252
ss(S'relations'
p253
g76
tp254
(dp255
S'headers%gcc-4.8'
p256
S'linux-compiler-gcc-4.8-s390'
p257
ss(g106
g91
g108
tp258
(dp259
g111
I01
sg112
(lp260
S'sb1-bcm91250a'
p261
aS'sb1a-bcm91480b'
p262
aS'4kc-malta'
p263
aS'5kc-malta'
p264
aS'loongson-2e'
p265
aS'loongson-2f'
p266
ass(S'build'
p267
S's390x'
p268
NS's390x'
p269
tp270
(dp271
S'debug-info'
p272
I01
ss(S'description'
p273
S'powerpcspe'
p274
tp275
(dp276
S'hardware'
p277
S'32-bit PowerPC with SPE (instead of AltiVec) with SMP support'
p278
ss(S'relations'
p279
tp280
(dp281
S'gcc-4.8'
p282
S'gcc-4.8'
p283
sS'initramfs-fallback'
p284
S'linux-initramfs-tool'
p285
sS'gcc-4.7'
p286
S'gcc-4.7'
p287
sS'gcc-4.6'
p288
S'gcc-4.6'
p289
sS'gcc-4.4'
p290
S'gcc-4.4'
p291
sS'initramfs-tools'
p292
S'initramfs-tools (>= 0.110~)'
p293
ss(S'description'
p294
g48
NS'mckinley'
p295
tp296
(dp297
S'hardware'
p298
S'Itanium II'
p299
ss(S'description'
p300
g16
NS'iop32x'
p301
tp302
(dp303
S'hardware'
p304
S'IOP32x'
p305
sS'hardware-long'
p306
S'IOP32x based systems (Thecus N2100, etc)'
p307
ss(S'description'
p308
g16
NS'ixp4xx'
p309
tp310
(dp311
S'hardware'
p312
S'IXP4xx'
p313
sS'hardware-long'
p314
S'IXP4xx based systems (Linksys NSLU2, etc)'
p315
ss(g106
g149
g108
tp316
(dp317
g111
I01
sg112
(lp318
S'sh7751r'
p319
aS'sh7785lcr'
p320
ass(S'description'
p321
g25
NS'5kc-malta'
p322
tp323
(dp324
S'hardware'
p325
S'MIPS Malta (64-bit)'
p326
sS'hardware-long'
p327
S'MIPS Malta boards (64-bit)'
p328
ss(S'description'
p329
S'hppa'
p330
NS'parisc64-smp'
p331
tp332
(dp333
S'hardware'
p334
S'multiprocessor 64-bit PA-RISC'
p335
sS'hardware-long'
p336
S'HP PA-RISC 64-bit SMP systems with support for more than 4 GB RAM'
p337
ss(S'description'
p338
S'sparc64'
p339
NS'sparc64'
p340
tp341
(dp342
S'hardware'
p343
S'uniprocessor 64-bit UltraSPARC'
p344
ss(S'base'
p345
g330
NS'parisc64-smp'
p346
tp347
(dp348
S'override-host-type'
p349
S'hppa64-linux-gnu'
p350
sS'cflags'
p351
S'-fno-cse-follow-jumps'
p352
ss(S'description'
p353
g5
NS'amd64'
p354
tp355
(dp356
S'hardware'
p357
S'64-bit PCs'
p358
sS'hardware-long'
p359
S'PCs with AMD64, Intel 64 or VIA Nano processors'
p360
ss(S'base'
p361
g16
tp362
(dp363
S'kernel-arch'
p364
S'arm'
p365
sg140
(lp366
g108
ass(S'description'
p367
g116
NS'alpha-legacy'
p368
tp369
(dp370
S'hardware'
p371
S'Alpha Legacy'
p372
sS'hardware-long'
p373
S'DEC Alpha systems with legacy kernel start address'
p374
ss(S'base'
p375
g100
tp376
(dp377
S'kernel-arch'
p378
S'sparc'
p379
sg140
(lp380
g108
ass(S'image'
p381
g91
NS'5kc-malta'
p382
tp383
(dp384
S'configs'
p385
(lp386
S'mips/config.5kc-malta'
p387
ass(S'image'
p388
g158
NS'amd64'
p389
tp390
(dp391
S'configs'
p392
(lp393
S'kernelarch-x86/config-arch-64'
p394
asS'recommends'
p395
S'libc6-i686'
p396
ss(S'image'
p397
g149
NS'sh7785lcr'
p398
tp399
(dp400
S'check-size'
p401
S'4194304'
p402
sS'recommends'
p403
S'uboot-mkimage'
p404
ss(S'build'
p405
g76
NS's390x'
p406
tp407
(dp408
S'debug-info'
p409
I01
ss(S'description'
p410
g16
NS'orion5x'
p411
tp412
(dp413
S'hardware'
p414
S'Marvell Orion'
p415
sS'hardware-long'
p416
S'Marvell Orion 5181, 5182 and 5281 based systems (QNAP TS-109/TS-209, etc)'
p417
ss(g106
g76
g108
tp418
(dp419
g111
I01
sg112
(lp420
S's390x'
p421
ass(g106
g268
g108
tp422
(dp423
g111
I01
sg112
(lp424
S's390x'
p425
ass(S'base'
p426
g25
tp427
(dp428
S'kernel-arch'
p429
S'mips'
p430
sg140
(lp431
g108
ass(S'build'
p432
g5
tp433
(dp434
S'debug-info'
p435
I01
ss(S'image'
p436
g91
tp437
(dp438
S'initramfs'
p439
I00
ss(S'description'
p440
g171
NS'powerpc'
p441
tp442
(dp443
S'hardware'
p444
S'uniprocessor 32-bit PowerPC'
p445
ss(S'description'
p446
g158
NS'486'
p447
tp448
(dp449
S'hardware'
p450
S'older PCs'
p451
sS'parts'
p452
(lp453
S'up'
p454
asS'hardware-long'
p455
S'PCs with a single processor not supporting PAE'
p456
ss(S'description'
p457
g91
NS'loongson-2e'
p458
tp459
(dp460
S'hardware'
p461
S'Loongson 2E'
p462
sS'hardware-long'
p463
S'Lemote Loongson 2E systems'
p464
ss(S'description'
p465
g116
NS'alpha-smp'
p466
tp467
(dp468
S'hardware'
p469
S'Alpha SMP'
p470
sS'hardware-long'
p471
S'DEC Alpha SMP systems with extended kernel start address (Wildfire, Titan, Marvel)'
p472
ss(S'base'
p473
g5
tp474
(dp475
S'kernel-arch'
p476
S'x86'
p477
sS'featuresets'
p478
(lp479
S'none'
p480
aS'rt'
p481
ass(S'base'
p482
g48
tp483
(dp484
S'kernel-arch'
p485
S'ia64'
p486
sg140
(lp487
g108
asS'compiler'
p488
S'gcc-4.6'
p489
ss(S'abi'
p490
Ng125
tp491
(dp492
S'ignore-changes'
p493
(lp494
S'*'
p495
ass(S'base'
p496
g76
tp497
(dp498
S'kernel-arch'
p499
S's390'
p500
sg140
(lp501
g108
ass(g106
g16
g108
tp502
(dp503
g111
I01
sg112
(lp504
S'iop32x'
p505
aS'ixp4xx'
p506
aS'kirkwood'
p507
aS'mv78xx0'
p508
aS'orion5x'
p509
aS'versatile'
p510
ass(S'description'
p511
g16
NS'kirkwood'
p512
tp513
(dp514
S'hardware'
p515
S'Marvell Kirkwood'
p516
sS'hardware-long'
p517
S'Marvell Kirkwood based systems (SheevaPlug, QNAP TS-119/TS-219, etc)'
p518
ss(S'description'
p519
g158
tp520
(dp521
S'part-long-pae'
p522
S'This kernel requires PAE (Physical Address Extension).\nThis feature is supported by the Intel Pentium Pro/II/III/4/4M/D, Xeon,\nCore and Atom; AMD Geode NX, Athlon (K7), Duron, Opteron, Sempron,\nTurion or Phenom; Transmeta Efficeon; VIA C7; and some other processors.'
p523
ss(S'base'
p524
NS'rt'
p525
tp526
(dp527
S'enabled'
p528
I00
ss(S'base'
p529
g158
g198
tp530
(dp531
S'flavours'
p532
(lp533
S'486'
p534
aS'686-pae'
p535
aS'amd64'
p536
ass(S'xen'
p537
g5
g41
S'amd64'
p538
tp539
(dp540
S'flavours'
p541
(lp542
S'amd64'
p543
ass(S'image'
p544
g16
tp545
(dp546
S'suggests'
p547
S'fdutils'
p548
ss(S'image'
p549
g76
tp550
(dp551
S'configs'
p552
(lp553
S's390x/config'
p554
asS'bootloaders'
p555
(lp556
S's390-tools'
p557
ass(S'description'
p558
g339
NS'sparc64-smp'
p559
tp560
(dp561
S'hardware'
p562
S'multiprocessor 64-bit UltraSPARC'
p563
ss(S'relations'
p564
g16
tp565
(dp566
S'headers%gcc-4.8'
p567
S'linux-compiler-gcc-4.8-arm'
p568
ss(S'image'
p569
g330
tp570
(dp571
S'suggests'
p572
S'palo'
p573
ss(S'description'
p574
g25
NS'r4k-ip22'
p575
tp576
(dp577
S'hardware'
p578
S'SGI IP22'
p579
sS'hardware-long'
p580
S'SGI IP22 systems (Indy, Indigo2)'
p581
ss(S'image'
p582
g274
tp583
(dp584
S'suggests'
p585
S'mkvmlinuz'
p586
sS'configs'
p587
(lp588
S'powerpc/config'
p589
aS'powerpcspe/config.powerpcspe'
p590
ass(S'relations'
p591
g330
tp592
(dp593
S'gcc-4.8'
p594
S'gcc-4.8, binutils-hppa64, gcc-4.8-hppa64'
p595
ss(S'build'
p596
g149
NS'sh7785lcr'
p597
tp598
(dp599
S'image-file'
p600
S'arch/sh/boot/zImage'
p601
ss(S'image'
p602
g100
NS'sparc32'
p603
tp604
(dp605
S'image-postproc'
p606
S'sparc32-image-postproc'
p607
ss(S'description'
p608
g107
NS'powerpc64'
p609
tp610
(dp611
S'hardware'
p612
S'64-bit PowerPC'
p613
ss(g106
g330
g108
tp614
(dp615
g111
I01
sg112
(lp616
S'parisc'
p617
aS'parisc64-smp'
p618
ass(S'image'
p619
g116
tp620
(dp621
S'suggests'
p622
S'aboot, fdutils'
p623
ss(S'base'
p624
g339
tp625
(dp626
S'kernel-arch'
p627
S'sparc'
p628
sg140
(lp629
g108
ass(S'image'
p630
g158
tp631
(dp632
S'configs'
p633
(lp634
sS'bootloaders'
p635
(lp636
S'grub-pc'
p637
aS'extlinux'
p638
aS'lilo'
p639
ass(S'image'
p640
g16
NS'kirkwood'
p641
tp642
(dp643
S'check-size'
p644
S'2097080'
p645
sS'recommends'
p646
S'uboot-mkimage'
p647
ss(S'description'
p648
g149
NS'sh7751r'
p649
tp650
(dp651
S'hardware'
p652
S'sh7751r'
p653
sS'hardware-long'
p654
S'Renesas SH7751R R2D plus board'
p655
ss(S'base'
p656
g268
tp657
(dp658
S'kernel-arch'
p659
S's390'
p660
sg140
(lp661
g108
ass(S'image'
p662
g107
tp663
(dp664
S'suggests'
p665
S'mkvmlinuz'
p666
sS'configs'
p667
(lp668
S'powerpc/config'
p669
ass(S'image'
p670
g25
tp671
(dp672
S'initramfs'
p673
I00
ss(S'description'
p674
g100
NS'sparc64'
p675
tp676
(dp677
S'hardware'
p678
S'uniprocessor 64-bit UltraSPARC'
p679
ss(g106
g100
g108
tp680
(dp681
g111
I01
sg112
(lp682
S'sparc64'
p683
aS'sparc64-smp'
p684
ass(S'base'
p685
g107
tp686
(dp687
S'kernel-arch'
p688
S'powerpc'
p689
sg140
(lp690
g108
ass(g106
g116
g108
tp691
(dp692
g111
I01
sg112
(lp693
S'alpha-generic'
p694
aS'alpha-smp'
p695
aS'alpha-legacy'
p696
ass(S'description'
p697
g158
g198
S'686-pae'
p698
tp699
(dp700
S'parts'
p701
(lp702
S'xen'
p703
ass(S'base'
p704
S'x32'
p705
tp706
(dp707
S'kernel-arch'
p708
S'x86'
p709
sS'featuresets'
p710
(lp711
ss(S'build'
p712
g16
NS'orion5x'
p713
tp714
(dp715
S'image-file'
p716
S'arch/arm/boot/zImage'
p717
ss(g106
g25
g108
tp718
(dp719
g111
I01
sg112
(lp720
S'r4k-ip22'
p721
aS'r5k-ip32'
p722
aS'sb1-bcm91250a'
p723
aS'sb1a-bcm91480b'
p724
aS'4kc-malta'
p725
aS'5kc-malta'
p726
aS'octeon'
p727
ass(S'description'
p728
g91
NS'4kc-malta'
p729
tp730
(dp731
S'hardware'
p732
S'MIPS Malta'
p733
sS'hardware-long'
p734
S'MIPS Malta boards'
p735
ss(S'description'
p736
g158
NS'amd64'
p737
tp738
(dp739
S'hardware'
p740
S'64-bit PCs'
p741
sS'parts'
p742
(lp743
S'xen'
p744
asS'hardware-long'
p745
S'PCs with AMD64, Intel 64 or VIA Nano processors'
p746
ss(S'description'
p747
g158
NS'686-pae'
p748
tp749
(dp750
S'hardware'
p751
S'modern PCs'
p752
sS'parts'
p753
(lp754
S'pae'
p755
asS'hardware-long'
p756
S'PCs with one or more processors supporting PAE'
p757
ss(S'image'
p758
g5
NS'amd64'
p759
tp760
(dp761
S'configs'
p762
(lp763
S'kernelarch-x86/config-arch-64'
p764
ass(S'build'
p765
g142
NS'armmp-lpae'
p766
tp767
(dp768
S'image-file'
p769
S'arch/arm/boot/zImage'
p770
ss(S'description'
p771
g16
NS'mv78xx0'
p772
tp773
(dp774
S'hardware'
p775
S'Marvell 78xx0'
p776
sS'hardware-long'
p777
S'Marvell DB-78xx0-BP Development Board'
p778
ss(g106
g48
g108
tp779
(dp780
g111
I01
sg112
(lp781
S'itanium'
p782
aS'mckinley'
p783
ass(S'image'
p784
g34
tp785
(dp786
S'suggests'
p787
S'vmelilo, fdutils'
p788
ss(S'description'
p789
g76
NS's390x'
p790
tp791
(dp792
S'hardware'
p793
S'IBM zSeries'
p794
ss(S'description'
p795
g25
NS'4kc-malta'
p796
tp797
(dp798
S'hardware'
p799
S'MIPS Malta'
p800
sS'hardware-long'
p801
S'MIPS Malta boards'
p802
ss(S'base'
p803
g142
tp804
(dp805
S'kernel-arch'
p806
S'arm'
p807
sg140
(lp808
g108
ass(S'description'
p809
g25
NS'octeon'
p810
tp811
(dp812
S'hardware'
p813
S'Octeon'
p814
sS'hardware-long'
p815
S'Cavium Networks Octeon'
p816
ss(S'image'
p817
g149
tp818
(dp819
S'suggests'
p820
S'fdutils'
p821
ss(S'base'
p822
g330
tp823
(dp824
S'kernel-arch'
p825
S'parisc'
p826
sg140
(lp827
g108
ass(S'base'
p828
g149
tp829
(dp830
S'kernel-arch'
p831
S'sh'
p832
sg140
(lp833
g108
asS'compiler'
p834
S'gcc-4.7'
p835
ss(S'image'
p836
g91
NS'4kc-malta'
p837
tp838
(dp839
S'configs'
p840
(lp841
S'mips/config.4kc-malta'
p842
ass(S'description'
p843
g142
NS'armmp'
p844
tp845
(dp846
S'hardware'
p847
S'ARMv7 multiplatform compatible SoCs'
p848
sS'hardware-long'
p849
S'ARMv7 multiplatform kernel for Marvell Armada 370/xp, Freescale iMX5x/iMX6'
p850
ss(S'image'
p851
g100
tp852
(dp853
S'suggests'
p854
S'silo, fdutils'
p855
ss(S'description'
p856
g91
NS'loongson-2f'
p857
tp858
(dp859
S'hardware'
p860
S'Loongson 2F'
p861
sS'hardware-long'
p862
S'Lemote Loongson 2F systems'
p863
ss(S'description'
p864
g330
NS'parisc'
p865
tp866
(dp867
S'hardware'
p868
S'32-bit PA-RISC'
p869
sS'hardware-long'
p870
S'HP PA-RISC 32-bit systems with max 4 GB RAM'
p871
ss(S'description'
p872
tp873
(dp874
S'part-long-up'
p875
S'This kernel is not suitable for SMP (multi-processor,\nmulti-core or hyper-threaded) systems.'
p876
sS'part-long-xen'
p877
S'This kernel also runs on a Xen hypervisor.\nIt supports both privileged (dom0) and unprivileged (domU) operation.'
p878
ss(S'relations'
p879
g142
tp880
(dp881
S'headers%gcc-4.8'
p882
S'linux-compiler-gcc-4.8-arm'
p883
ss(S'image'
p884
g16
NS'iop32x'
p885
tp886
(dp887
S'check-size'
p888
S'1441784'
p889
sS'configs'
p890
(lp891
S'armel/config-reduced'
p892
aS'armel/config-tiny'
p893
aS'armel/config.iop32x'
p894
ass(S'image'
p895
g158
NS'686-pae'
p896
tp897
(dp898
S'configs'
p899
(lp900
S'kernelarch-x86/config-arch-32'
p901
aS'i386/config.686-pae'
p902
asS'recommends'
p903
S'libc6-i686'
p904
ss(S'image'
p905
g339
tp906
(dp907
S'suggests'
p908
S'silo, fdutils'
p909
sS'configs'
p910
(lp911
S'sparc/config'
p912
ass(S'relations'
p913
g268
tp914
(dp915
S'headers%gcc-4.8'
p916
S'linux-compiler-gcc-4.8-s390'
p917
ss(S'base'
p918
g171
tp919
(dp920
S'kernel-arch'
p921
S'powerpc'
p922
sg140
(lp923
g108
ass(S'image'
p924
g339
NS'sparc64'
p925
tp926
(dp927
S'configs'
p928
(lp929
S'sparc/config.sparc64'
p930
ass(S'image'
p931
g91
NS'loongson-2f'
p932
tp933
(dp934
S'recommends'
p935
S'libc6-loongson2f'
p936
ss(S'description'
p937
g91
NS'sb1a-bcm91480b'
p938
tp939
(dp940
S'hardware'
p941
S'BCM91480B'
p942
sS'hardware-long'
p943
S'Broadcom BCM91480B systems (aka BigSur)'
p944
ss(S'image'
p945
g171
NS'powerpc-smp'
p946
tp947
(dp948
S'configs'
p949
(lp950
S'powerpc/config.powerpc'
p951
aS'powerpc/config.powerpc-smp'
p952
ass(S'image'
p953
g142
tp954
(dp955
S'suggests'
p956
S'fdutils'
p957
sS'configs'
p958
(lp959
S'armel/config'
p960
aS'armhf/config'
p961
ass(S'abi'
p962
tp963
(dp964
S'abiname'
p965
S'trunk'
p966
ss(S'description'
p967
g25
NS'r5k-ip32'
p968
tp969
(dp970
S'hardware'
p971
S'SGI IP32'
p972
sS'hardware-long'
p973
S'SGI IP32 systems (O2)'
p974
ss(g106
g274
g108
tp975
(dp976
g111
I01
sg112
(lp977
S'powerpcspe'
p978
ass(g106
g34
g108
tp979
(dp980
g111
I01
sg112
(lp981
S'm68k'
p982
ass(S'description'
p983
g171
NS'powerpc64'
p984
tp985
(dp986
S'hardware'
p987
S'64-bit PowerPC'
p988
ss(S'base'
p989
tp990
(dp991
S'arches'
p992
(lp993
S'alpha'
p994
aS'amd64'
p995
aS'arm64'
p996
aS'armel'
p997
aS'armhf'
p998
aS'hppa'
p999
aS'i386'
p1000
aS'ia64'
p1001
aS'm68k'
p1002
aS'mips'
p1003
aS'mipsel'
p1004
aS'powerpc'
p1005
aS'powerpcspe'
p1006
aS'ppc64'
p1007
aS's390'
p1008
aS's390x'
p1009
aS'sh4'
p1010
aS'sparc'
p1011
aS'sparc64'
p1012
aS'x32'
p1013
asS'featuresets'
p1014
(lp1015
S'none'
p1016
aS'rt'
p1017
asS'compiler'
p1018
S'gcc-4.8'
p1019
ss(S'image'
p1020
g107
NS'powerpc64'
p1021
tp1022
(dp1023
S'configs'
p1024
(lp1025
S'powerpc/config.powerpc64'
p1026
ass(S'description'
p1027
g100
NS'sparc32'
p1028
tp1029
(dp1030
S'hardware'
p1031
S'uniprocessor sparc32 (sun4m)'
p1032
ss(g106
g171
g108
tp1033
(dp1034
g111
I01
sg112
(lp1035
S'powerpc'
p1036
aS'powerpc-smp'
p1037
aS'powerpc64'
p1038
ass(S'description'
p1039
g268
NS's390x'
p1040
tp1041
(dp1042
S'hardware'
p1043
S'IBM zSeries'
p1044
ss(S'image'
p1045
g91
NS'sb1a-bcm91480b'
p1046
tp1047
(dp1048
S'configs'
p1049
(lp1050
S'mips/config.sb1a-bcm91480b'
p1051
ass(S'description'
p1052
g91
NS'5kc-malta'
p1053
tp1054
(dp1055
S'hardware'
p1056
S'MIPS Malta (64-bit)'
p1057
sS'hardware-long'
p1058
S'MIPS Malta boards (64-bit)'
p1059
ss(S'description'
p1060
g48
NS'itanium'
p1061
tp1062
(dp1063
S'hardware'
p1064
S'Itanium'
p1065
ss(S'base'
p1066
g34
tp1067
(dp1068
S'kernel-arch'
p1069
S'm68k'
p1070
sg140
(lp1071
g108
asS'cflags'
p1072
S'-ffreestanding'
p1073
sS'compiler'
p1074
S'gcc-4.8'
p1075
ss(S'image'
p1076
tp1077
(dp1078
S'initramfs-generators'
p1079
(lp1080
S'initramfs-tools'
p1081
aS'initramfs-fallback'
p1082
asS'type'
p1083
S'plain'
p1084
ss(S'base'
p1085
g274
tp1086
(dp1087
S'kernel-arch'
p1088
S'powerpc'
p1089
sg140
(lp1090
g108
ass(g106
g339
g108
tp1091
(dp1092
g111
I01
sg112
(lp1093
S'sparc64'
p1094
aS'sparc64-smp'
p1095
ass(S'build'
p1096
g16
NS'mv78xx0'
p1097
tp1098
(dp1099
S'image-file'
p1100
S'arch/arm/boot/zImage'
p1101
ss(S'image'
p1102
g142
NS'armmp-lpae'
p1103
tp1104
(dp1105
S'configs'
p1106
(lp1107
S'armhf/config.armmp'
p1108
aS'armhf/config.lpae'
p1109
ass(S'image'
p1110
g158
NS'486'
p1111
tp1112
(dp1113
S'configs'
p1114
(lp1115
S'kernelarch-x86/config-arch-32'
p1116
aS'i386/config.486'
p1117
ass(S'description'
p1118
g171
NS'powerpc-smp'
p1119
tp1120
(dp1121
S'hardware'
p1122
S'multiprocessor 32-bit PowerPC'
p1123
ss(S'image'
p1124
g268
tp1125
(dp1126
S'bootloaders'
p1127
(lp1128
S's390-tools'
p1129
ass(S'build'
p1130
g16
NS'iop32x'
p1131
tp1132
(dp1133
S'image-file'
p1134
S'arch/arm/boot/zImage'
p1135
ss(S'image'
p1136
g16
NS'orion5x'
p1137
tp1138
(dp1139
S'check-size'
p1140
S'1572792'
p1141
sS'configs'
p1142
(lp1143
S'armel/config-reduced'
p1144
aS'armel/config.orion5x'
p1145
asS'recommends'
p1146
S'uboot-mkimage'
p1147
ss(S'image'
p1148
g91
NS'sb1-bcm91250a'
p1149
tp1150
(dp1151
S'configs'
p1152
(lp1153
S'mips/config.sb1-bcm91250a'
p1154
ass(S'build'
p1155
g16
NS'ixp4xx'
p1156
tp1157
(dp1158
S'image-file'
p1159
S'arch/arm/boot/zImage'
p1160
ss(S'build'
p1161
g158
NS'686-pae'
p1162
tp1163
(dp1164
S'debug-info'
p1165
I01
ss(S'image'
p1166
g339
NS'sparc64-smp'
p1167
tp1168
(dp1169
S'configs'
p1170
(lp1171
S'sparc/config.sparc64-smp'
p1172
asstp1173
Rp1174
.