ccopy_reg
_reconstructor
p0
(cdebian_linux.config
ConfigCore
p1
c__builtin__
dict
p2
(dp3
(S'image'
p4
S'amd64'
p5
NS'amd64'
p6
tp7
(dp8
S'configs'
p9
(lp10
S'kernelarch-x86/config-arch-64'
p11
ass(S'image'
p12
g5
tp13
(dp14
S'install-stem'
p15
S'vmlinuz'
p16
sS'configs'
p17
(lp18
sS'bootloaders'
p19
(lp20
S'grub-pc'
p21
aS'grub-efi'
p22
aS'extlinux'
p23
ass(S'image'
p24
S'mips64el'
p25
NS'loongson-3'
p26
tp27
(dp28
S'configs'
p29
(lp30
S'kernelarch-mips/config.loongson-3'
p31
ass(S'base'
p32
g5
S'none'
p33
tp34
(dp35
S'flavours'
p36
(lp37
S'amd64'
p38
ass(S'image'
p39
S'powerpcspe'
p40
tp41
(dp42
S'suggests'
p43
S'mkvmlinuz'
p44
sS'install-stem'
p45
S'vmlinux'
p46
ss(S'description'
p47
S'armel'
p48
NS'kirkwood'
p49
tp50
(dp51
S'hardware'
p52
S'Marvell Kirkwood'
p53
sS'hardware-long'
p54
S'Marvell Kirkwood based systems (SheevaPlug, QNAP TS-119/TS-219, etc)'
p55
ss(S'image'
p56
S'ia64'
p57
tp58
(dp59
S'suggests'
p60
S'fdutils'
p61
sS'bootloaders'
p62
(lp63
S'elilo'
p64
asS'install-stem'
p65
S'vmlinuz'
p66
ss(S'abi'
p67
tp68
(dp69
S'abiname'
p70
S'2'
p71
sS'ignore-changes'
p72
(lp73
S'module:arch/x86/kvm/kvm'
p74
aS'module:drivers/usb/host/xhci-hcd'
p75
aS'bdi_unregister'
p76
ass(S'description'
p77
S's390x'
p78
NS's390x'
p79
tp80
(dp81
S'hardware'
p82
S'IBM zSeries'
p83
ss(S'description'
p84
S'armhf'
p85
NS'armmp'
p86
tp87
(dp88
S'hardware'
p89
S'ARMv7 multiplatform compatible SoCs'
p90
sS'hardware-long'
p91
S'ARMv7 multiplatform kernel. See\nhttps://wiki.debian.org/DebianKernel/ARMMP for details of supported\nplatforms'
p92
ss(S'base'
p93
NS'rt'
p94
tp95
(dp96
S'enabled'
p97
I01
ss(S'version'
p98
tp99
(dp100
S'abiname'
p101
S'4.0.0-2'
p102
sS'source'
p103
V4.0.7-1
p104
sS'abiname_base'
p105
S'4.0.0'
p106
sS'upstream'
p107
S'4.0'
p108
ss(S'description'
p109
S'sparc'
p110
NS'sparc32'
p111
tp112
(dp113
S'hardware'
p114
S'uniprocessor sparc32 (sun4m)'
p115
ss(S'description'
p116
g5
g33
S'amd64'
p117
tp118
(dp119
S'parts'
p120
(lp121
S'xen'
p122
ass(S'base'
p123
S'ppc64'
p124
S'none'
p125
tp126
(dp127
S'implicit-flavour'
p128
I01
sS'flavours'
p129
(lp130
S'powerpc64'
p131
ass(S'description'
p132
S'powerpc'
p133
NS'powerpc-smp'
p134
tp135
(dp136
S'hardware'
p137
S'multiprocessor 32-bit PowerPC'
p138
ss(S'description'
p139
g5
NS'amd64'
p140
tp141
(dp142
S'hardware'
p143
S'64-bit PCs'
p144
sS'hardware-long'
p145
S'PCs with AMD64, Intel 64 or VIA Nano processors'
p146
ss(S'image'
p147
g78
NS's390x'
p148
tp149
(dp150
S'configs'
p151
(lp152
S'kernelarch-s390/config-arch-64'
p153
ass(S'description'
p154
g110
NS'sparc64'
p155
tp156
(dp157
S'hardware'
p158
S'uniprocessor 64-bit UltraSPARC'
p159
ss(S'description'
p160
g110
NS'sparc64-smp'
p161
tp162
(dp163
S'hardware'
p164
S'multiprocessor 64-bit UltraSPARC'
p165
ss(S'base'
p166
S'alpha'
p167
tp168
(dp169
S'kernel-arch'
p170
S'alpha'
p171
sS'featuresets'
p172
(lp173
g125
ass(g123
g85
g125
tp174
(dp175
g128
I01
sg129
(lp176
S'armmp'
p177
aS'armmp-lpae'
p178
ass(S'image'
p179
S'mips'
p180
NS'5kc-malta'
p181
tp182
(dp183
S'configs'
p184
(lp185
S'kernelarch-mips/config.5kc-malta'
p186
ass(S'image'
p187
S'i386'
p188
NS'586'
p189
tp190
(dp191
S'configs'
p192
(lp193
S'kernelarch-x86/config-arch-32'
p194
aS'i386/config.586'
p195
ass(S'description'
p196
g180
NS'r5k-ip32'
p197
tp198
(dp199
S'hardware'
p200
S'SGI IP32'
p201
sS'hardware-long'
p202
S'SGI IP32 systems (O2)'
p203
ss(S'base'
p204
g188
S'rt'
p205
tp206
(dp207
S'flavours'
p208
(lp209
S'686-pae'
p210
ass(S'description'
p211
g57
NS'itanium'
p212
tp213
(dp214
S'hardware'
p215
S'Itanium'
p216
ss(S'image'
p217
g48
NS'orion5x'
p218
tp219
(dp220
S'check-size'
p221
I2097080
sS'check-size-with-dtb'
p222
I01
sS'configs'
p223
(lp224
S'armel/config-reduced'
p225
aS'armel/config.orion5x'
p226
asS'recommends'
p227
S'uboot-mkimage'
p228
ss(S'relations'
p229
g188
tp230
(dp231
S'headers%gcc-4.9'
p232
S'linux-compiler-gcc-4.9-x86'
p233
ss(S'image'
p234
g133
tp235
(dp236
S'suggests'
p237
S'mkvmlinuz'
p238
sS'configs'
p239
(lp240
sS'install-stem'
p241
S'vmlinux'
p242
ss(S'image'
p243
S'sh4'
p244
NS'sh7785lcr'
p245
tp246
(dp247
S'check-size'
p248
I4194304
sS'recommends'
p249
S'uboot-mkimage'
p250
ss(S'description'
p251
NS'rt'
p252
tp253
(dp254
S'part-long-rt'
p255
S'This kernel includes the PREEMPT_RT realtime patch set.'
p256
sS'parts'
p257
(lp258
S'rt'
p259
asS'part-short-rt'
p260
S'PREEMPT_RT'
p261
ss(S'base'
p262
g5
S'rt'
p263
tp264
(dp265
S'flavours'
p266
(lp267
S'amd64'
p268
ass(S'description'
p269
S'sparc64'
p270
NS'sparc64'
p271
tp272
(dp273
S'hardware'
p274
S'uniprocessor 64-bit UltraSPARC'
p275
ss(S'build'
p276
S'ppc64el'
p277
tp278
(dp279
S'image-file'
p280
S'vmlinux'
p281
ss(S'build'
p282
g124
tp283
(dp284
S'image-file'
p285
S'vmlinux'
p286
ss(S'description'
p287
g85
NS'armmp-lpae'
p288
tp289
(dp290
S'hardware'
p291
S'ARMv7 multiplatform compatible SoCs supporting LPAE'
p292
sS'hardware-long'
p293
S'ARMv7 multiplatform kernel supporting LPAE. See\nhttps://wiki.debian.org/DebianKernel/ARMMP for details of supported\nplatforms.'
p294
ss(S'image'
p295
g188
NS'686-pae'
p296
tp297
(dp298
S'configs'
p299
(lp300
S'kernelarch-x86/config-arch-32'
p301
aS'i386/config.686-pae'
p302
asS'recommends'
p303
S'libc6-i686'
p304
ss(S'base'
p305
g188
tp306
(dp307
S'kernel-arch'
p308
S'x86'
p309
sS'featuresets'
p310
(lp311
S'none'
p312
aS'rt'
p313
ass(S'base'
p314
S'mipsel'
p315
tp316
(dp317
S'kernel-arch'
p318
S'mips'
p319
sg172
(lp320
g125
ass(S'description'
p321
g244
NS'sh7751r'
p322
tp323
(dp324
S'hardware'
p325
S'sh7751r'
p326
sS'hardware-long'
p327
S'Renesas SH7751R R2D plus board'
p328
ss(S'relations'
p329
g5
tp330
(dp331
S'headers%gcc-4.9'
p332
S'linux-compiler-gcc-4.9-x86'
p333
ss(S'description'
p334
g315
NS'sb1-bcm91250a'
p335
tp336
(dp337
S'hardware'
p338
S'BCM91250A'
p339
sS'hardware-long'
p340
S'Broadcom BCM91250A systems (aka SWARM)'
p341
ss(S'description'
p342
S'arm64'
p343
NS'arm64'
p344
tp345
(dp346
S'hardware'
p347
S'64-bit ARMv8 machines'
p348
ss(S'description'
p349
g315
NS'5kc-malta'
p350
tp351
(dp352
S'hardware'
p353
S'MIPS Malta (64-bit)'
p354
sS'hardware-long'
p355
S'MIPS Malta boards (64-bit)'
p356
ss(S'image'
p357
g315
NS'5kc-malta'
p358
tp359
(dp360
S'configs'
p361
(lp362
S'kernelarch-mips/config.5kc-malta'
p363
ass(g123
g315
g125
tp364
(dp365
g128
I01
sg129
(lp366
S'sb1-bcm91250a'
p367
aS'4kc-malta'
p368
aS'5kc-malta'
p369
aS'loongson-2e'
p370
aS'loongson-2f'
p371
aS'loongson-3'
p372
ass(S'description'
p373
g180
NS'4kc-malta'
p374
tp375
(dp376
S'hardware'
p377
S'MIPS Malta'
p378
sS'hardware-long'
p379
S'MIPS Malta boards'
p380
ss(S'description'
p381
g40
tp382
(dp383
S'hardware'
p384
S'32-bit PowerPC with SPE (instead of AltiVec) with SMP support'
p385
ss(S'relations'
p386
tp387
(dp388
S'gcc-4.9'
p389
S'gcc-4.9'
p390
sS'gcc-4.8'
p391
S'gcc-4.8'
p392
sS'initramfs-fallback'
p393
S'linux-initramfs-tool'
p394
sS'gcc-4.7'
p395
S'gcc-4.7'
p396
sS'gcc-4.6'
p397
S'gcc-4.6'
p398
sS'initramfs-tools'
p399
S'initramfs-tools (>= 0.110~)'
p400
ss(S'build'
p401
g167
tp402
(dp403
S'image-file'
p404
S'arch/alpha/boot/vmlinux.gz'
p405
ss(S'image'
p406
g85
tp407
(dp408
S'suggests'
p409
S'fdutils'
p410
sS'configs'
p411
(lp412
S'kernelarch-arm/config'
p413
aS'armhf/config'
p414
asS'install-stem'
p415
S'vmlinuz'
p416
ss(S'build'
p417
g40
tp418
(dp419
S'image-file'
p420
S'vmlinux'
p421
ss(S'description'
p422
S'mips64'
p423
NS'5kc-malta'
p424
tp425
(dp426
S'hardware'
p427
S'MIPS Malta'
p428
sS'hardware-long'
p429
S'MIPS Malta boards'
p430
ss(g123
g244
g125
tp431
(dp432
g128
I01
sg129
(lp433
S'sh7751r'
p434
aS'sh7785lcr'
p435
ass(S'build'
p436
S'hppa'
p437
tp438
(dp439
S'image-file'
p440
S'vmlinux'
p441
ss(S'image'
p442
g180
NS'4kc-malta'
p443
tp444
(dp445
S'configs'
p446
(lp447
S'kernelarch-mips/config.4kc-malta'
p448
ass(S'base'
p449
g48
tp450
(dp451
S'kernel-arch'
p452
S'arm'
p453
sg172
(lp454
g125
ass(S'description'
p455
g188
NS'586'
p456
tp457
(dp458
S'hardware'
p459
S'older PCs'
p460
sS'parts'
p461
(lp462
S'up'
p463
asS'hardware-long'
p464
S'PCs with a single processor not supporting PAE'
p465
ss(S'image'
p466
g180
NS'octeon'
p467
tp468
(dp469
S'configs'
p470
(lp471
S'kernelarch-mips/config.octeon'
p472
ass(S'build'
p473
g343
tp474
(dp475
S'debug-info'
p476
I01
sS'image-file'
p477
S'arch/arm64/boot/Image'
p478
ss(S'description'
p479
S'm68k'
p480
NS'm68k'
p481
tp482
(dp483
S'hardware'
p484
S'Motorola MC68020+ family'
p485
ss(S'base'
p486
g110
tp487
(dp488
S'kernel-arch'
p489
S'sparc'
p490
sg172
(lp491
g125
ass(S'image'
p492
g277
NS'powerpc64le'
p493
tp494
(dp495
S'configs'
p496
(lp497
S'kernelarch-powerpc/config-arch-64'
p498
aS'kernelarch-powerpc/config-arch-64-le'
p499
ass(g123
g78
g125
tp500
(dp501
g128
I01
sg129
(lp502
S's390x'
p503
ass(S'base'
p504
g180
tp505
(dp506
S'kernel-arch'
p507
S'mips'
p508
sg172
(lp509
g125
ass(S'build'
p510
g5
tp511
(dp512
S'debug-info'
p513
I01
sS'image-file'
p514
S'arch/x86/boot/bzImage'
p515
ss(S'build'
p516
g110
tp517
(dp518
S'image-file'
p519
S'arch/sparc/boot/zImage'
p520
ss(S'image'
p521
g315
tp522
(dp523
S'install-stem'
p524
S'vmlinux'
p525
ss(S'base'
p526
g437
NS'parisc64-smp'
p527
tp528
(dp529
S'override-host-type'
p530
S'hppa64-linux-gnu'
p531
sS'cflags'
p532
S'-fno-cse-follow-jumps'
p533
ss(S'build'
p534
g133
tp535
(dp536
S'image-file'
p537
S'vmlinux'
p538
ss(S'description'
p539
g133
NS'powerpc'
p540
tp541
(dp542
S'hardware'
p543
S'uniprocessor 32-bit PowerPC'
p544
ss(S'description'
p545
g315
NS'loongson-2f'
p546
tp547
(dp548
S'hardware'
p549
S'Loongson 2F'
p550
sS'hardware-long'
p551
S'Lemote Loongson 2F systems'
p552
ss(S'image'
p553
g423
NS'octeon'
p554
tp555
(dp556
S'configs'
p557
(lp558
S'kernelarch-mips/config.octeon'
p559
ass(S'build'
p560
g315
tp561
(dp562
S'image-file'
p563
S'vmlinux'
p564
ss(S'description'
p565
g25
NS'loongson-3'
p566
tp567
(dp568
S'hardware'
p569
S'Loongson 3A/3B'
p570
sS'hardware-long'
p571
S'Loongson 3A or 3B based systems (e.g. from Loongson or Lemote)'
p572
ss(S'base'
p573
g5
tp574
(dp575
S'kernel-arch'
p576
S'x86'
p577
sS'featuresets'
p578
(lp579
S'none'
p580
aS'rt'
p581
ass(S'base'
p582
g57
tp583
(dp584
S'kernel-arch'
p585
S'ia64'
p586
sg172
(lp587
g125
asS'compiler'
p588
S'gcc-4.6'
p589
ss(S'image'
p590
g85
NS'armmp-lpae'
p591
tp592
(dp593
S'configs'
p594
(lp595
S'armhf/config.armmp'
p596
aS'armhf/config.lpae'
p597
ass(S'description'
p598
g188
NS'686-pae'
p599
tp600
(dp601
S'hardware'
p602
S'modern PCs'
p603
sS'parts'
p604
(lp605
S'pae'
p606
asS'hardware-long'
p607
S'PCs with one or more processors supporting PAE'
p608
ss(S'image'
p609
g180
NS'r4k-ip22'
p610
tp611
(dp612
S'configs'
p613
(lp614
S'kernelarch-mips/config.r4k-ip22'
p615
ass(S'description'
p616
g167
NS'alpha-smp'
p617
tp618
(dp619
S'hardware'
p620
S'Alpha SMP'
p621
sS'hardware-long'
p622
S'DEC Alpha SMP systems with extended kernel start address (Wildfire, Titan, Marvel)'
p623
ss(S'base'
p624
S's390'
p625
tp626
(dp627
S'kernel-arch'
p628
S's390'
p629
sS'featuresets'
p630
(lp631
ss(g123
g48
g125
tp632
(dp633
g128
I01
sg129
(lp634
S'kirkwood'
p635
aS'orion5x'
p636
aS'versatile'
p637
ass(S'image'
p638
g48
NS'kirkwood'
p639
tp640
(dp641
S'check-size'
p642
I2097080
sS'check-size-with-dtb'
p643
I01
sS'breaks'
p644
S'flash-kernel (<< 3.30~)'
p645
sS'recommends'
p646
S'uboot-mkimage'
p647
sS'configs'
p648
(lp649
S'armel/config-reduced'
p650
aS'armel/config.kirkwood'
p651
ass(S'description'
p652
g180
NS'sb1-bcm91250a'
p653
tp654
(dp655
S'hardware'
p656
S'BCM91250A'
p657
sS'hardware-long'
p658
S'Broadcom BCM91250A systems (aka SWARM)'
p659
ss(S'description'
p660
g180
NS'octeon'
p661
tp662
(dp663
S'hardware'
p664
S'Octeon'
p665
sS'hardware-long'
p666
S'Cavium Networks Octeon'
p667
ss(S'description'
p668
g188
tp669
(dp670
S'part-long-pae'
p671
S'This kernel requires PAE (Physical Address Extension).\nThis feature is supported by the Intel Pentium Pro/II/III/4/4M/D, Xeon,\nCore and Atom; AMD Geode NX, Athlon (K7), Duron, Opteron, Sempron,\nTurion or Phenom; Transmeta Efficeon; VIA C7; and some other processors.'
p672
ss(S'description'
p673
g277
NS'powerpc64le'
p674
tp675
(dp676
S'hardware'
p677
S'Little-endian 64-bit PowerPC'
p678
ss(S'build'
p679
g25
tp680
(dp681
S'image-file'
p682
S'vmlinux'
p683
ss(S'xen'
p684
g5
g33
S'amd64'
p685
tp686
(dp687
S'flavours'
p688
(lp689
S'amd64'
p690
ass(S'image'
p691
g48
tp692
(dp693
S'suggests'
p694
S'fdutils'
p695
sS'configs'
p696
(lp697
S'kernelarch-arm/config'
p698
aS'armel/config'
p699
asS'install-stem'
p700
S'vmlinuz'
p701
ss(S'description'
p702
g25
NS'5kc-malta'
p703
tp704
(dp705
S'hardware'
p706
S'MIPS Malta'
p707
sS'hardware-long'
p708
S'MIPS Malta boards'
p709
ss(S'description'
p710
g315
NS'4kc-malta'
p711
tp712
(dp713
S'hardware'
p714
S'MIPS Malta'
p715
sS'hardware-long'
p716
S'MIPS Malta boards'
p717
ss(S'relations'
p718
g48
tp719
(dp720
S'headers%gcc-4.9'
p721
S'linux-compiler-gcc-4.9-arm'
p722
ss(S'image'
p723
g437
tp724
(dp725
S'suggests'
p726
S'palo'
p727
sS'install-stem'
p728
S'vmlinux'
p729
ss(g123
g423
g125
tp730
(dp731
g128
I01
sg129
(lp732
S'sb1-bcm91250a'
p733
aS'5kc-malta'
p734
aS'octeon'
p735
ass(S'relations'
p736
g437
tp737
(dp738
S'gcc-4.9'
p739
S'gcc-4.9, binutils-hppa64, gcc-4.9-hppa64'
p740
ss(g123
g437
g125
tp741
(dp742
g128
I01
sg129
(lp743
S'parisc'
p744
aS'parisc64-smp'
p745
ass(S'description'
p746
g423
NS'octeon'
p747
tp748
(dp749
S'hardware'
p750
S'Octeon'
p751
sS'hardware-long'
p752
S'Cavium Networks Octeon'
p753
ss(S'image'
p754
g167
tp755
(dp756
S'suggests'
p757
S'aboot, fdutils'
p758
sS'install-stem'
p759
S'vmlinuz'
p760
ss(S'base'
p761
g270
tp762
(dp763
S'kernel-arch'
p764
S'sparc'
p765
sg172
(lp766
g125
ass(S'image'
p767
g188
tp768
(dp769
S'install-stem'
p770
S'vmlinuz'
p771
sS'configs'
p772
(lp773
sS'bootloaders'
p774
(lp775
S'grub-pc'
p776
aS'extlinux'
p777
ass(S'base'
p778
S'or1k'
p779
tp780
(dp781
S'kernel-arch'
p782
S'openrisc'
p783
sS'featuresets'
p784
(lp785
ss(S'base'
p786
g78
tp787
(dp788
S'kernel-arch'
p789
S's390'
p790
sg172
(lp791
g125
asS'compiler'
p792
S'gcc-4.8'
p793
ss(S'description'
p794
g437
NS'parisc'
p795
tp796
(dp797
S'hardware'
p798
S'32-bit PA-RISC'
p799
sS'hardware-long'
p800
S'HP PA-RISC 32-bit systems with max 4 GB RAM'
p801
ss(S'image'
p802
g423
NS'sb1-bcm91250a'
p803
tp804
(dp805
S'configs'
p806
(lp807
S'kernelarch-mips/config.sb1-bcm91250a'
p808
ass(S'image'
p809
g133
NS'powerpc-smp'
p810
tp811
(dp812
S'configs'
p813
(lp814
S'powerpc/config.powerpc'
p815
aS'powerpc/config.powerpc-smp'
p816
ass(g123
g25
g125
tp817
(dp818
g128
I01
sg129
(lp819
S'sb1-bcm91250a'
p820
aS'5kc-malta'
p821
aS'loongson-3'
p822
aS'octeon'
p823
ass(S'image'
p824
g124
tp825
(dp826
S'suggests'
p827
S'mkvmlinuz'
p828
sS'configs'
p829
(lp830
sS'install-stem'
p831
S'vmlinux'
p832
ss(S'image'
p833
g180
tp834
(dp835
S'install-stem'
p836
S'vmlinux'
p837
ss(S'image'
p838
g25
NS'octeon'
p839
tp840
(dp841
S'configs'
p842
(lp843
S'kernelarch-mips/config.octeon'
p844
ass(g123
g110
g125
tp845
(dp846
g128
I01
sg129
(lp847
S'sparc64'
p848
aS'sparc64-smp'
p849
ass(S'base'
p850
g124
tp851
(dp852
S'kernel-arch'
p853
S'powerpc'
p854
sg172
(lp855
g125
ass(g123
g180
g125
tp856
(dp857
g128
I01
sg129
(lp858
S'r4k-ip22'
p859
aS'r5k-ip32'
p860
aS'sb1-bcm91250a'
p861
aS'4kc-malta'
p862
aS'5kc-malta'
p863
aS'octeon'
p864
ass(S'description'
p865
g188
S'none'
p866
S'686-pae'
p867
tp868
(dp869
S'parts'
p870
(lp871
S'xen'
p872
ass(g123
g57
g125
tp873
(dp874
g128
I01
sg129
(lp875
S'itanium'
p876
aS'mckinley'
p877
ass(S'base'
p878
g343
S'none'
p879
tp880
(dp881
S'flavours'
p882
(lp883
S'arm64'
p884
ass(S'build'
p885
g78
tp886
(dp887
S'image-file'
p888
S'arch/s390/boot/image'
p889
ss(g123
g167
g125
tp890
(dp891
g128
I01
sg129
(lp892
S'alpha-generic'
p893
aS'alpha-smp'
p894
ass(S'build'
p895
g180
tp896
(dp897
S'image-file'
p898
S'vmlinux'
p899
ss(S'image'
p900
g423
tp901
(dp902
S'install-stem'
p903
S'vmlinux'
p904
ss(S'image'
p905
g25
NS'sb1-bcm91250a'
p906
tp907
(dp908
S'configs'
p909
(lp910
S'kernelarch-mips/config.sb1-bcm91250a'
p911
ass(S'description'
p912
g124
NS'powerpc64'
p913
tp914
(dp915
S'hardware'
p916
S'64-bit PowerPC'
p917
ss(S'base'
p918
S'x32'
p919
tp920
(dp921
S'kernel-arch'
p922
S'x86'
p923
sS'featuresets'
p924
(lp925
ss(S'build'
p926
g244
tp927
(dp928
S'image-file'
p929
S'arch/sh/boot/zImage'
p930
ss(S'image'
p931
g480
tp932
(dp933
S'suggests'
p934
S'vmelilo, fdutils'
p935
sS'install-stem'
p936
S'vmlinuz'
p937
ss(S'description'
p938
g437
NS'parisc64-smp'
p939
tp940
(dp941
S'hardware'
p942
S'multiprocessor 64-bit PA-RISC'
p943
sS'hardware-long'
p944
S'HP PA-RISC 64-bit SMP systems with support for more than 4 GB RAM'
p945
ss(S'image'
p946
g110
NS'sparc32'
p947
tp948
(dp949
S'image-postproc'
p950
S'sparc32-image-postproc'
p951
ss(S'build'
p952
g423
tp953
(dp954
S'image-file'
p955
S'vmlinux'
p956
ss(S'build'
p957
g85
tp958
(dp959
S'image-file'
p960
S'arch/arm/boot/zImage'
p961
ss(S'image'
p962
g270
NS'sparc64'
p963
tp964
(dp965
S'configs'
p966
(lp967
S'kernelarch-sparc/config-up'
p968
ass(S'build'
p969
g57
tp970
(dp971
S'image-file'
p972
S'vmlinux.gz'
p973
ss(S'base'
p974
g85
tp975
(dp976
S'kernel-arch'
p977
S'arm'
p978
sg172
(lp979
g125
ass(S'image'
p980
g244
tp981
(dp982
S'suggests'
p983
S'fdutils'
p984
sS'install-stem'
p985
S'vmlinuz'
p986
ss(S'base'
p987
g423
tp988
(dp989
S'kernel-arch'
p990
S'mips'
p991
sg172
(lp992
g125
ass(S'base'
p993
g437
tp994
(dp995
S'kernel-arch'
p996
S'parisc'
p997
sg172
(lp998
g125
ass(S'image'
p999
g423
NS'5kc-malta'
p1000
tp1001
(dp1002
S'configs'
p1003
(lp1004
S'kernelarch-mips/config.5kc-malta'
p1005
ass(S'base'
p1006
g244
tp1007
(dp1008
S'kernel-arch'
p1009
S'sh'
p1010
sg172
(lp1011
g125
ass(S'description'
p1012
g315
NS'loongson-2e'
p1013
tp1014
(dp1015
S'hardware'
p1016
S'Loongson 2E'
p1017
sS'hardware-long'
p1018
S'Lemote Loongson 2E systems'
p1019
ss(S'image'
p1020
g110
tp1021
(dp1022
S'suggests'
p1023
S'silo, fdutils'
p1024
sS'configs'
p1025
(lp1026
sS'install-stem'
p1027
S'vmlinuz'
p1028
ss(S'description'
p1029
tp1030
(dp1031
S'part-long-up'
p1032
S'This kernel is not suitable for SMP (multi-processor,\nmulti-core or hyper-threaded) systems.'
p1033
sS'part-long-xen'
p1034
S'This kernel also runs on a Xen hypervisor.\nIt supports both privileged (dom0) and unprivileged (domU) operation.'
p1035
ss(S'image'
p1036
g315
NS'loongson-2e'
p1037
tp1038
(dp1039
S'configs'
p1040
(lp1041
S'kernelarch-mips/config.loongson-2e'
p1042
ass(S'build'
p1043
g270
tp1044
(dp1045
S'image-file'
p1046
S'arch/sparc/boot/zImage'
p1047
ss(S'relations'
p1048
g85
tp1049
(dp1050
S'headers%gcc-4.9'
p1051
S'linux-compiler-gcc-4.9-arm'
p1052
ss(S'image'
p1053
g315
NS'loongson-2f'
p1054
tp1055
(dp1056
S'configs'
p1057
(lp1058
S'kernelarch-mips/config.loongson-2f'
p1059
asS'recommends'
p1060
S'libc6-loongson2f'
p1061
ss(S'description'
p1062
g180
NS'5kc-malta'
p1063
tp1064
(dp1065
S'hardware'
p1066
S'MIPS Malta (64-bit)'
p1067
sS'hardware-long'
p1068
S'MIPS Malta boards (64-bit)'
p1069
ss(S'description'
p1070
g133
NS'powerpc64'
p1071
tp1072
(dp1073
S'hardware'
p1074
S'64-bit PowerPC'
p1075
ss(S'image'
p1076
g180
NS'r5k-ip32'
p1077
tp1078
(dp1079
S'configs'
p1080
(lp1081
S'kernelarch-mips/config.r5k-ip32'
p1082
ass(S'image'
p1083
g270
tp1084
(dp1085
S'suggests'
p1086
S'silo, fdutils'
p1087
sS'configs'
p1088
(lp1089
sS'install-stem'
p1090
S'vmlinuz'
p1091
ss(S'relations'
p1092
g78
tp1093
(dp1094
S'headers%gcc-4.8'
p1095
S'linux-compiler-gcc-4.8-s390'
p1096
ss(S'description'
p1097
g57
NS'mckinley'
p1098
tp1099
(dp1100
S'hardware'
p1101
S'Itanium II'
p1102
ss(S'base'
p1103
g133
tp1104
(dp1105
S'kernel-arch'
p1106
S'powerpc'
p1107
sg172
(lp1108
g125
ass(S'image'
p1109
g124
NS'powerpc64'
p1110
tp1111
(dp1112
S'configs'
p1113
(lp1114
S'kernelarch-powerpc/config-arch-64'
p1115
aS'kernelarch-powerpc/config-arch-64-be'
p1116
ass(S'description'
p1117
g25
NS'sb1-bcm91250a'
p1118
tp1119
(dp1120
S'hardware'
p1121
S'BCM91250A'
p1122
sS'hardware-long'
p1123
S'Broadcom BCM91250A systems (aka SWARM)'
p1124
ss(S'image'
p1125
g343
NS'arm64'
p1126
tp1127
(dp1128
s(S'description'
p1129
g25
NS'octeon'
p1130
tp1131
(dp1132
S'hardware'
p1133
S'Octeon'
p1134
sS'hardware-long'
p1135
S'Cavium Networks Octeon'
p1136
ss(S'description'
p1137
g167
NS'alpha-generic'
p1138
tp1139
(dp1140
S'hardware'
p1141
S'Alpha'
p1142
sS'hardware-long'
p1143
S'DEC Alpha systems with extended kernel start address (Wildfire, Titan, Marvel)'
p1144
ss(S'image'
p1145
g277
tp1146
(dp1147
S'suggests'
p1148
S'mkvmlinuz'
p1149
sS'configs'
p1150
(lp1151
sS'install-stem'
p1152
S'vmlinux'
p1153
ss(S'description'
p1154
g423
NS'sb1-bcm91250a'
p1155
tp1156
(dp1157
S'hardware'
p1158
S'BCM91250A'
p1159
sS'hardware-long'
p1160
S'Broadcom BCM91250A systems (aka SWARM)'
p1161
ss(S'image'
p1162
g180
NS'sb1-bcm91250a'
p1163
tp1164
(dp1165
S'configs'
p1166
(lp1167
S'kernelarch-mips/config.sb1-bcm91250a'
p1168
ass(S'base'
p1169
g343
tp1170
(dp1171
S'kernel-arch'
p1172
S'arm64'
p1173
sS'featuresets'
p1174
(lp1175
S'none'
p1176
ass(S'image'
p1177
g270
NS'sparc64-smp'
p1178
tp1179
(dp1180
S'configs'
p1181
(lp1182
S'kernelarch-sparc/config-smp'
p1183
ass(S'image'
p1184
g315
NS'loongson-3'
p1185
tp1186
(dp1187
S'configs'
p1188
(lp1189
S'kernelarch-mips/config.loongson-3'
p1190
ass(S'description'
p1191
g48
NS'versatile'
p1192
tp1193
(dp1194
S'hardware'
p1195
S'Versatile'
p1196
sS'hardware-long'
p1197
S'Versatile systems (PB, AB, Qemu)'
p1198
ss(S'description'
p1199
g315
NS'loongson-3'
p1200
tp1201
(dp1202
S'hardware'
p1203
S'Loongson 3A/3B'
p1204
sS'hardware-long'
p1205
S'Loongson 3A or 3B based systems (e.g. from Loongson or Lemote)'
p1206
ss(g123
g40
g125
tp1207
(dp1208
g128
I01
sg129
(lp1209
S'powerpcspe'
p1210
ass(S'image'
p1211
g315
NS'sb1-bcm91250a'
p1212
tp1213
(dp1214
S'configs'
p1215
(lp1216
S'kernelarch-mips/config.sb1-bcm91250a'
p1217
ass(g123
g480
g125
tp1218
(dp1219
g128
I01
sg129
(lp1220
S'm68k'
p1221
ass(S'base'
p1222
g188
g866
tp1223
(dp1224
S'flavours'
p1225
(lp1226
S'586'
p1227
aS'686-pae'
p1228
ass(S'base'
p1229
tp1230
(dp1231
S'arches'
p1232
(lp1233
S'alpha'
p1234
aS'amd64'
p1235
aS'arm64'
p1236
aS'armel'
p1237
aS'armhf'
p1238
aS'hppa'
p1239
aS'i386'
p1240
aS'ia64'
p1241
aS'm68k'
p1242
aS'mips'
p1243
aS'mipsel'
p1244
aS'mips64'
p1245
aS'mips64el'
p1246
aS'or1k'
p1247
aS'powerpc'
p1248
aS'powerpcspe'
p1249
aS'ppc64'
p1250
aS'ppc64el'
p1251
aS's390'
p1252
aS's390x'
p1253
aS'sh4'
p1254
aS'sparc'
p1255
aS'sparc64'
p1256
aS'x32'
p1257
asS'featuresets'
p1258
(lp1259
S'none'
p1260
aS'rt'
p1261
asS'compiler'
p1262
S'gcc-4.9'
p1263
ss(S'image'
p1264
g110
NS'sparc64'
p1265
tp1266
(dp1267
S'configs'
p1268
(lp1269
S'kernelarch-sparc/config-up'
p1270
ass(S'build'
p1271
g480
tp1272
(dp1273
S'image-file'
p1274
S'vmlinux.gz'
p1275
ss(S'build'
p1276
g48
tp1277
(dp1278
S'image-file'
p1279
S'arch/arm/boot/zImage'
p1280
ss(g123
g133
g125
tp1281
(dp1282
g128
I01
sg129
(lp1283
S'powerpc'
p1284
aS'powerpc-smp'
p1285
aS'powerpc64'
p1286
ass(S'image'
p1287
g25
tp1288
(dp1289
S'install-stem'
p1290
S'vmlinux'
p1291
ss(S'base'
p1292
g277
tp1293
(dp1294
S'kernel-arch'
p1295
S'powerpc'
p1296
sg172
(lp1297
g125
ass(S'base'
p1298
g25
tp1299
(dp1300
S'kernel-arch'
p1301
S'mips'
p1302
sg172
(lp1303
g125
ass(S'base'
p1304
g480
tp1305
(dp1306
S'kernel-arch'
p1307
S'm68k'
p1308
sg172
(lp1309
g125
asS'cflags'
p1310
S'-ffreestanding'
p1311
sS'compiler'
p1312
S'gcc-4.8'
p1313
ss(S'description'
p1314
g180
NS'r4k-ip22'
p1315
tp1316
(dp1317
S'hardware'
p1318
S'SGI IP22'
p1319
sS'hardware-long'
p1320
S'SGI IP22 systems (Indy, Indigo2)'
p1321
ss(S'image'
p1322
tp1323
(dp1324
S'initramfs-generators'
p1325
(lp1326
S'initramfs-tools'
p1327
aS'initramfs-fallback'
p1328
asS'type'
p1329
S'plain'
p1330
ss(S'base'
p1331
g40
tp1332
(dp1333
S'kernel-arch'
p1334
S'powerpc'
p1335
sg172
(lp1336
g125
ass(g123
g270
g125
tp1337
(dp1338
g128
I01
sg129
(lp1339
S'sparc64'
p1340
aS'sparc64-smp'
p1341
ass(S'image'
p1342
g25
NS'5kc-malta'
p1343
tp1344
(dp1345
S'configs'
p1346
(lp1347
S'kernelarch-mips/config.5kc-malta'
p1348
ass(S'description'
p1349
g244
NS'sh7785lcr'
p1350
tp1351
(dp1352
S'hardware'
p1353
S'sh7785lcr'
p1354
sS'hardware-long'
p1355
S'Renesas SH7785 reference board'
p1356
ss(S'image'
p1357
g315
NS'4kc-malta'
p1358
tp1359
(dp1360
S'configs'
p1361
(lp1362
S'kernelarch-mips/config.4kc-malta'
p1363
ass(S'build'
p1364
g188
NS'686-pae'
p1365
tp1366
(dp1367
S'debug-info'
p1368
I01
ss(S'build'
p1369
g78
NS's390x'
p1370
tp1371
(dp1372
S'debug-info'
p1373
I01
ss(S'description'
p1374
g48
NS'orion5x'
p1375
tp1376
(dp1377
S'hardware'
p1378
S'Marvell Orion'
p1379
sS'hardware-long'
p1380
S'Marvell Orion 5181, 5182 and 5281 based systems (QNAP TS-109/TS-209, etc)'
p1381
ss(S'image'
p1382
g78
tp1383
(dp1384
S'install-stem'
p1385
S'vmlinuz'
p1386
sS'configs'
p1387
(lp1388
sS'bootloaders'
p1389
(lp1390
S's390-tools'
p1391
ass(S'image'
p1392
g133
NS'powerpc64'
p1393
tp1394
(dp1395
S'configs'
p1396
(lp1397
S'kernelarch-powerpc/config-arch-64'
p1398
aS'kernelarch-powerpc/config-arch-64-be'
p1399
ass(S'image'
p1400
g343
tp1401
(dp1402
S'install-stem'
p1403
S'vmlinuz'
p1404
ss(S'description'
p1405
g270
NS'sparc64-smp'
p1406
tp1407
(dp1408
S'hardware'
p1409
S'multiprocessor 64-bit UltraSPARC'
p1410
ss(S'abi'
p1411
Ng252
tp1412
(dp1413
S'ignore-changes'
p1414
(lp1415
S'*'
p1416
ass(S'image'
p1417
g110
NS'sparc64-smp'
p1418
tp1419
(dp1420
S'configs'
p1421
(lp1422
S'kernelarch-sparc/config-smp'
p1423
ass(S'build'
p1424
g188
tp1425
(dp1426
S'image-file'
p1427
S'arch/x86/boot/bzImage'
p1428
ss(g123
g277
g125
tp1429
(dp1430
g128
I01
sg129
(lp1431
S'powerpc64le'
p1432
asstp1433
Rp1434
.