ccopy_reg
_reconstructor
p0
(cdebian_linux.config
ConfigCore
p1
c__builtin__
dict
p2
(dp3
(Vimage
p4
Vmips64
p5
tp6
(dp7
Vinstall-stem
p8
Vvmlinux
p9
ss(Vversion
p10
tp11
(dp12
Vabiname
p13
V4.2.0-1
p14
sVabiname_base
p15
V4.2.0
p16
sVsource
p17
V4.2.1-2
p18
sVupstream
p19
V4.2
p20
ss(Vabi
p21
tp22
(dp23
Vabiname
p24
V1
p25
ss(Vimage
p26
Varm64
p27
tp28
(dp29
Vinstall-stem
p30
Vvmlinuz
p31
ss(Vimage
p32
Vi386
p33
tp34
(dp35
Vinstall-stem
p36
Vvmlinuz
p37
sVconfigs
p38
(lp39
sVbootloaders
p40
(lp41
Vgrub-pc
p42
aVextlinux
p43
ass(Vbuild
p44
Vmips64el
p45
tp46
(dp47
Vimage-file
p48
Vvmlinux
p49
ss(Vdescription
p50
g33
tp51
(dp52
Vpart-long-pae
p53
VThis kernel requires PAE (Physical Address Extension).\u000aThis feature is supported by the Intel Pentium Pro/II/III/4/4M/D, Xeon,\u000aCore and Atom; AMD Geode NX, Athlon (K7), Duron, Opteron, Sempron,\u000aTurion or Phenom; Transmeta Efficeon; VIA C7; and some other processors.
p54
ss(Vimage
p55
g45
NVocteon
p56
tp57
(dp58
Vconfigs
p59
(lp60
Vkernelarch-mips/config.octeon
p61
ass(Vimage
p62
Vmipsel
p63
tp64
(dp65
Vinstall-stem
p66
Vvmlinux
p67
ss(Vbase
p68
Valpha
p69
tp70
(dp71
Vkernel-arch
p72
Valpha
p73
sVfeaturesets
p74
(lp75
Vnone
p76
ass(Vbuild
p77
Vppc64el
p78
tp79
(dp80
Vimage-file
p81
Vvmlinux
p82
ss(Vimage
p83
Vmips
p84
NV5kc-malta
p85
tp86
(dp87
Vconfigs
p88
(lp89
Vkernelarch-mips/config.5kc-malta
p90
ass(Vdescription
p91
g63
NV4kc-malta
p92
tp93
(dp94
Vhardware-long
p95
VMIPS Malta boards
p96
sVhardware
p97
VMIPS Malta
p98
ss(Vdescription
p99
g63
NVloongson-2f
p100
tp101
(dp102
Vhardware-long
p103
VLemote Loongson 2F systems
p104
sVhardware
p105
VLoongson 2F
p106
ss(Vbase
p107
Vhppa
p108
g76
tp109
(dp110
Vflavours
p111
(lp112
Vparisc
p113
aVparisc64-smp
p114
asVimplicit-flavour
p115
I01
ss(Vimage
p116
g78
NVpowerpc64le
p117
tp118
(dp119
Vconfigs
p120
(lp121
Vkernelarch-powerpc/config-arch-64
p122
aVkernelarch-powerpc/config-arch-64-le
p123
ass(Vdescription
p124
g63
NVloongson-2e
p125
tp126
(dp127
Vhardware-long
p128
VLemote Loongson 2E systems
p129
sVhardware
p130
VLoongson 2E
p131
ss(Vimage
p132
g5
NVocteon
p133
tp134
(dp135
Vconfigs
p136
(lp137
Vkernelarch-mips/config.octeon
p138
ass(Vdescription
p139
NVrt
p140
tp141
(dp142
Vpart-long-rt
p143
VThis kernel includes the PREEMPT_RT realtime patch set.
p144
sVparts
p145
(lp146
Vrt
p147
asVpart-short-rt
p148
VPREEMPT_RT
p149
ss(Vrelations
p150
Varmhf
p151
tp152
(dp153
Vheaders%gcc-4.9
p154
Vlinux-compiler-gcc-4.9-arm
p155
ss(Vdescription
p156
g151
NVarmmp-lpae
p157
tp158
(dp159
Vhardware-long
p160
VARMv7 multiplatform kernel supporting LPAE. See\u000ahttps://wiki.debian.org/DebianKernel/ARMMP for details of supported\u000aplatforms.
p161
sVhardware
p162
VARMv7 multiplatform compatible SoCs supporting LPAE
p163
ss(Vdescription
p164
Vpowerpc
p165
NVpowerpc64
p166
tp167
(dp168
Vhardware
p169
V64-bit PowerPC
p170
ss(Vrelations
p171
Vamd64
p172
tp173
(dp174
Vheaders%gcc-4.9
p175
Vlinux-compiler-gcc-4.9-x86
p176
ss(g107
Vsparc64
p177
g76
tp178
(dp179
g111
(lp180
Vsparc64
p181
aVsparc64-smp
p182
asg115
I01
ss(Vimage
p183
g45
NV5kc-malta
p184
tp185
(dp186
Vconfigs
p187
(lp188
Vkernelarch-mips/config.5kc-malta
p189
ass(Vdescription
p190
Varmel
p191
NVorion5x
p192
tp193
(dp194
Vhardware-long
p195
VMarvell Orion 5181, 5182 and 5281 based systems (QNAP TS-109/TS-209, etc)
p196
sVhardware
p197
VMarvell Orion
p198
ss(Vdescription
p199
g78
NVpowerpc64le
p200
tp201
(dp202
Vhardware
p203
VLittle-endian 64-bit PowerPC
p204
ss(Vbuild
p205
g33
NV686-pae
p206
tp207
(dp208
Vdebug-info
p209
I01
ss(Vdescription
p210
g151
NVarmmp
p211
tp212
(dp213
Vhardware-long
p214
VARMv7 multiplatform kernel. See\u000ahttps://wiki.debian.org/DebianKernel/ARMMP for details of supported\u000aplatforms
p215
sVhardware
p216
VARMv7 multiplatform compatible SoCs
p217
ss(Vbase
p218
tp219
(dp220
Varches
p221
(lp222
Valpha
p223
aVamd64
p224
aVarm64
p225
aVarmel
p226
aVarmhf
p227
aVhppa
p228
aVi386
p229
aVm68k
p230
aVmips
p231
aVmipsel
p232
aVmips64
p233
aVmips64el
p234
aVor1k
p235
aVpowerpc
p236
aVpowerpcspe
p237
aVppc64
p238
aVppc64el
p239
aVs390
p240
aVs390x
p241
aVsh4
p242
aVsparc
p243
aVsparc64
p244
aVx32
p245
asVcompiler
p246
Vgcc-4.9
p247
sVfeaturesets
p248
(lp249
Vnone
p250
aVrt
p251
ass(Vbuild
p252
g191
tp253
(dp254
Vimage-file
p255
Varch/arm/boot/zImage
p256
ss(Vbase
p257
Vsh4
p258
tp259
(dp260
Vkernel-arch
p261
Vsh
p262
sg74
(lp263
g76
ass(Vimage
p264
g63
NV5kc-malta
p265
tp266
(dp267
Vconfigs
p268
(lp269
Vkernelarch-mips/config.5kc-malta
p270
ass(Vbase
p271
g45
tp272
(dp273
Vkernel-arch
p274
Vmips
p275
sg74
(lp276
g76
ass(Vimage
p277
Vs390x
p278
NVs390x
p279
tp280
(dp281
Vconfigs
p282
(lp283
Vkernelarch-s390/config-arch-64
p284
ass(Vimage
p285
g63
NVloongson-3
p286
tp287
(dp288
Vconfigs
p289
(lp290
Vkernelarch-mips/config.loongson-3
p291
ass(Vbase
p292
g172
Vnone
p293
tp294
(dp295
Vflavours
p296
(lp297
Vamd64
p298
ass(Vbase
p299
g191
tp300
(dp301
Vkernel-arch
p302
Varm
p303
sg74
(lp304
g76
ass(Vdescription
p305
g5
NVocteon
p306
tp307
(dp308
Vhardware-long
p309
VCavium Networks Octeon
p310
sVhardware
p311
VOcteon
p312
ss(Vxen
p313
g172
g293
Vamd64
p314
tp315
(dp316
Vflavours
p317
(lp318
Vamd64
p319
ass(Vdescription
p320
g172
g293
Vamd64
p321
tp322
(dp323
Vparts
p324
(lp325
Vxen
p326
ass(g107
g78
g76
tp327
(dp328
g111
(lp329
Vpowerpc64le
p330
asg115
I01
ss(Vdescription
p331
g165
NVpowerpc-smp
p332
tp333
(dp334
Vhardware
p335
Vmultiprocessor 32-bit PowerPC
p336
ss(Vimage
p337
g278
tp338
(dp339
Vinstall-stem
p340
Vvmlinuz
p341
sVconfigs
p342
(lp343
sVbootloaders
p344
(lp345
Vs390-tools
p346
ass(Vimage
p347
g177
NVsparc64
p348
tp349
(dp350
Vconfigs
p351
(lp352
Vkernelarch-sparc/config-up
p353
ass(Vbuild
p354
g278
NVs390x
p355
tp356
(dp357
Vdebug-info
p358
I01
ss(Vimage
p359
Vm68k
p360
tp361
(dp362
Vinstall-stem
p363
Vvmlinuz
p364
sVsuggests
p365
Vvmelilo, fdutils
p366
ss(Vimage
p367
g63
NVloongson-2f
p368
tp369
(dp370
Vconfigs
p371
(lp372
Vkernelarch-mips/config.loongson-2f
p373
asVrecommends
p374
Vlibc6-loongson2f
p375
ss(Vbase
p376
g108
tp377
(dp378
Vkernel-arch
p379
Vparisc
p380
sg74
(lp381
g76
ass(Vdescription
p382
g108
NVparisc
p383
tp384
(dp385
Vhardware-long
p386
VHP PA-RISC 32-bit systems with max 4 GB RAM
p387
sVhardware
p388
V32-bit PA-RISC
p389
ss(Vdescription
p390
g191
NVversatile
p391
tp392
(dp393
Vhardware-long
p394
VVersatile systems (PB, AB, Qemu)
p395
sVhardware
p396
VVersatile
p397
ss(Vbase
p398
g5
tp399
(dp400
Vkernel-arch
p401
Vmips
p402
sg74
(lp403
g76
ass(Vbase
p404
g151
tp405
(dp406
Vkernel-arch
p407
Varm
p408
sg74
(lp409
g76
ass(Vrelations
p410
g191
tp411
(dp412
Vheaders%gcc-4.9
p413
Vlinux-compiler-gcc-4.9-arm
p414
ss(Vdescription
p415
g33
Vnone
p416
V686-pae
p417
tp418
(dp419
Vparts
p420
(lp421
Vxen
p422
ass(Vbase
p423
g165
tp424
(dp425
Vkernel-arch
p426
Vpowerpc
p427
sg74
(lp428
g76
ass(Vdescription
p429
Vppc64
p430
NVpowerpc64
p431
tp432
(dp433
Vhardware
p434
V64-bit PowerPC
p435
ss(Vbuild
p436
g430
tp437
(dp438
Vimage-file
p439
Vvmlinux
p440
ss(Vbuild
p441
g63
tp442
(dp443
Vimage-file
p444
Vvmlinux
p445
ss(Vimage
p446
g258
tp447
(dp448
Vinstall-stem
p449
Vvmlinuz
p450
sVsuggests
p451
Vfdutils
p452
ss(Vbuild
p453
g84
tp454
(dp455
Vimage-file
p456
Vvmlinux
p457
ss(Vimage
p458
g430
tp459
(dp460
Vinstall-stem
p461
Vvmlinux
p462
sVconfigs
p463
(lp464
sVsuggests
p465
Vmkvmlinuz
p466
ss(g107
g165
g76
tp467
(dp468
g111
(lp469
Vpowerpc
p470
aVpowerpc-smp
p471
aVpowerpc64
p472
asg115
I01
ss(Vbase
p473
Vx32
p474
tp475
(dp476
Vkernel-arch
p477
Vx86
p478
sVfeaturesets
p479
(lp480
ss(Vdescription
p481
g33
NV686-pae
p482
tp483
(dp484
Vparts
p485
(lp486
Vpae
p487
asVhardware-long
p488
VPCs with one or more processors supporting PAE
p489
sVhardware
p490
Vmodern PCs
p491
ss(Vdescription
p492
g27
NVarm64
p493
tp494
(dp495
Vhardware
p496
V64-bit ARMv8 machines
p497
ss(Vimage
p498
g258
NVsh7785lcr
p499
tp500
(dp501
Vcheck-size
p502
L4194304L
sVrecommends
p503
Vu-boot-tools
p504
ss(Vbase
p505
Vpowerpcspe
p506
tp507
(dp508
Vkernel-arch
p509
Vpowerpc
p510
sg74
(lp511
g76
ass(Vbuild
p512
g360
tp513
(dp514
Vimage-file
p515
Vvmlinux.gz
p516
ss(Vdescription
p517
g278
NVs390x
p518
tp519
(dp520
Vhardware
p521
VIBM zSeries
p522
ss(Vdescription
p523
g69
NValpha-generic
p524
tp525
(dp526
Vhardware-long
p527
VDEC Alpha systems with extended kernel start address (Wildfire, Titan, Marvel)
p528
sVhardware
p529
VAlpha
p530
ss(Vdescription
p531
g165
NVpowerpc
p532
tp533
(dp534
Vhardware
p535
Vuniprocessor 32-bit PowerPC
p536
ss(Vbuild
p537
g108
tp538
(dp539
Vimage-file
p540
Vvmlinux
p541
ss(g107
g5
g76
tp542
(dp543
g111
(lp544
V5kc-malta
p545
aVocteon
p546
asg115
I01
ss(Vbase
p547
g84
tp548
(dp549
Vkernel-arch
p550
Vmips
p551
sg74
(lp552
g76
ass(Vbase
p553
g278
tp554
(dp555
Vkernel-arch
p556
Vs390
p557
sg74
(lp558
g76
ass(Vimage
p559
g165
NVpowerpc64
p560
tp561
(dp562
Vconfigs
p563
(lp564
Vkernelarch-powerpc/config-arch-64
p565
aVkernelarch-powerpc/config-arch-64-be
p566
ass(g107
g45
g76
tp567
(dp568
g111
(lp569
V5kc-malta
p570
aVloongson-3
p571
aVocteon
p572
asg115
I01
ss(Vbase
p573
g27
Vnone
p574
tp575
(dp576
Vflavours
p577
(lp578
Varm64
p579
ass(Vimage
p580
g191
tp581
(dp582
Vinstall-stem
p583
Vvmlinuz
p584
sVconfigs
p585
(lp586
Vkernelarch-arm/config
p587
aVarmel/config
p588
asVsuggests
p589
Vfdutils
p590
ss(Vimage
p591
g506
tp592
(dp593
Vinstall-stem
p594
Vvmlinux
p595
sVsuggests
p596
Vmkvmlinuz
p597
ss(Vbuild
p598
g165
tp599
(dp600
Vimage-file
p601
Vvmlinux
p602
ss(Vbase
p603
g172
Vrt
p604
tp605
(dp606
Vflavours
p607
(lp608
Vamd64
p609
ass(Vimage
p610
g63
NVloongson-2e
p611
tp612
(dp613
Vconfigs
p614
(lp615
Vkernelarch-mips/config.loongson-2e
p616
ass(Vdescription
p617
g506
tp618
(dp619
Vhardware
p620
V32-bit PowerPC with SPE (instead of AltiVec) with SMP support
p621
ss(Vimage
p622
g165
tp623
(dp624
Vinstall-stem
p625
Vvmlinux
p626
sVconfigs
p627
(lp628
sVsuggests
p629
Vmkvmlinuz
p630
ss(Vimage
p631
g191
NVorion5x
p632
tp633
(dp634
Vconfigs
p635
(lp636
Varmel/config-reduced
p637
aVarmel/config.orion5x
p638
asVcheck-size
p639
L2097080L
sVrecommends
p640
Vu-boot-tools
p641
sVcheck-size-with-dtb
p642
I01
ss(Vimage
p643
g5
NV5kc-malta
p644
tp645
(dp646
Vconfigs
p647
(lp648
Vkernelarch-mips/config.5kc-malta
p649
ass(Vbase
p650
g27
tp651
(dp652
Vkernel-arch
p653
Varm64
p654
sVfeaturesets
p655
(lp656
Vnone
p657
ass(Vdescription
p658
g84
NV5kc-malta
p659
tp660
(dp661
Vhardware-long
p662
VMIPS Malta boards (64-bit)
p663
sVhardware
p664
VMIPS Malta (64-bit)
p665
ss(Vimage
p666
g84
NV4kc-malta
p667
tp668
(dp669
Vconfigs
p670
(lp671
Vkernelarch-mips/config.4kc-malta
p672
ass(Vbase
p673
g63
tp674
(dp675
Vkernel-arch
p676
Vmips
p677
sg74
(lp678
g76
ass(g107
g258
g76
tp679
(dp680
g111
(lp681
Vsh7751r
p682
aVsh7785lcr
p683
asg115
I01
ss(Vrelations
p684
g278
tp685
(dp686
Vheaders%gcc-4.8
p687
Vlinux-compiler-gcc-4.8-s390
p688
ss(Vimage
p689
g172
NVamd64
p690
tp691
(dp692
Vconfigs
p693
(lp694
Vkernelarch-x86/config-arch-64
p695
ass(Vbuild
p696
g69
tp697
(dp698
Vimage-file
p699
Varch/alpha/boot/vmlinux.gz
p700
ss(Vdescription
p701
g45
NV5kc-malta
p702
tp703
(dp704
Vhardware-long
p705
VMIPS Malta boards
p706
sVhardware
p707
VMIPS Malta
p708
ss(Vbase
p709
g172
tp710
(dp711
Vkernel-arch
p712
Vx86
p713
sVfeaturesets
p714
(lp715
Vnone
p716
aVrt
p717
ass(Vimage
p718
g151
tp719
(dp720
Vinstall-stem
p721
Vvmlinuz
p722
sVconfigs
p723
(lp724
Vkernelarch-arm/config
p725
asVsuggests
p726
Vfdutils
p727
ss(Vimage
p728
g177
NVsparc64-smp
p729
tp730
(dp731
Vconfigs
p732
(lp733
Vkernelarch-sparc/config-smp
p734
ass(Vimage
p735
g177
tp736
(dp737
Vinstall-stem
p738
Vvmlinuz
p739
sVconfigs
p740
(lp741
sVsuggests
p742
Vsilo, fdutils
p743
ss(Vimage
p744
g151
NVarmmp-lpae
p745
tp746
(dp747
Vconfigs
p748
(lp749
Varmhf/config.armmp
p750
aVarmhf/config.lpae
p751
ass(Vimage
p752
g191
NVkirkwood
p753
tp754
(dp755
Vconfigs
p756
(lp757
Varmel/config-reduced
p758
aVarmel/config.kirkwood
p759
asVcheck-size
p760
L2097080L
sVbreaks
p761
Vflash-kernel (<< 3.30~)
p762
sVrecommends
p763
Vu-boot-tools
p764
sVcheck-size-with-dtb
p765
I01
ss(Vbase
p766
g33
g416
tp767
(dp768
Vflavours
p769
(lp770
V586
p771
aV686-pae
p772
ass(Vbase
p773
g33
tp774
(dp775
Vkernel-arch
p776
Vx86
p777
sVfeaturesets
p778
(lp779
Vnone
p780
aVrt
p781
ass(Vdescription
p782
g258
NVsh7785lcr
p783
tp784
(dp785
Vhardware-long
p786
VRenesas SH7785 reference board
p787
sVhardware
p788
Vsh7785lcr
p789
ss(Vdescription
p790
g63
NVloongson-3
p791
tp792
(dp793
Vhardware-long
p794
VLoongson 3A or 3B based systems (e.g. from Loongson or Lemote)
p795
sVhardware
p796
VLoongson 3A/3B
p797
ss(Vdescription
p798
g191
NVkirkwood
p799
tp800
(dp801
Vhardware-long
p802
VMarvell Kirkwood based systems (SheevaPlug, QNAP TS-119/TS-219, etc)
p803
sVhardware
p804
VMarvell Kirkwood
p805
ss(Vbuild
p806
g5
tp807
(dp808
Vimage-file
p809
Vvmlinux
p810
ss(Vbuild
p811
g506
tp812
(dp813
Vimage-file
p814
Vvmlinux
p815
ss(Vimage
p816
g45
tp817
(dp818
Vinstall-stem
p819
Vvmlinux
p820
ss(Vdescription
p821
g84
NV4kc-malta
p822
tp823
(dp824
Vhardware-long
p825
VMIPS Malta boards
p826
sVhardware
p827
VMIPS Malta
p828
ss(Vrelations
p829
tp830
(dp831
Vgcc-4.6
p832
Vgcc-4.6
p833
sVgcc-4.7
p834
Vgcc-4.7
p835
sVgcc-4.8
p836
Vgcc-4.8
p837
sVgcc-4.9
p838
Vgcc-4.9
p839
sVinitramfs-tools
p840
Vinitramfs-tools (>= 0.110~)
p841
sVinitramfs-fallback
p842
Vlinux-initramfs-tool
p843
ss(g107
g151
g76
tp844
(dp845
g111
(lp846
Varmmp
p847
aVarmmp-lpae
p848
asg115
I01
ss(Vrelations
p849
g33
tp850
(dp851
Vheaders%gcc-4.9
p852
Vlinux-compiler-gcc-4.9-x86
p853
ss(Vrelations
p854
g108
tp855
(dp856
Vgcc-4.9
p857
Vgcc-4.9, binutils-hppa64, gcc-4.9-hppa64
p858
ss(Vabi
p859
Ng140
tp860
(dp861
Vignore-changes
p862
(lp863
V*
p864
ass(Vdescription
p865
g45
NVloongson-3
p866
tp867
(dp868
Vhardware-long
p869
VLoongson 3A or 3B based systems (e.g. from Loongson or Lemote)
p870
sVhardware
p871
VLoongson 3A/3B
p872
ss(Vbase
p873
g78
tp874
(dp875
Vkernel-arch
p876
Vpowerpc
p877
sg74
(lp878
g76
ass(Vbase
p879
g108
NVparisc64-smp
p880
tp881
(dp882
Voverride-host-type
p883
Vhppa64-linux-gnu
p884
sVcflags
p885
V-fno-cse-follow-jumps
p886
ss(Vimage
p887
g33
NV586
p888
tp889
(dp890
Vconfigs
p891
(lp892
Vkernelarch-x86/config-arch-32
p893
aVi386/config.586
p894
ass(Vimage
p895
g430
NVpowerpc64
p896
tp897
(dp898
Vconfigs
p899
(lp900
Vkernelarch-powerpc/config-arch-64
p901
aVkernelarch-powerpc/config-arch-64-be
p902
ass(Vbase
p903
Vsparc
p904
tp905
(dp906
Vkernel-arch
p907
Vsparc
p908
sVfeaturesets
p909
(lp910
ss(Vdescription
p911
g69
NValpha-smp
p912
tp913
(dp914
Vhardware-long
p915
VDEC Alpha SMP systems with extended kernel start address (Wildfire, Titan, Marvel)
p916
sVhardware
p917
VAlpha SMP
p918
ss(Vbase
p919
Vs390
p920
tp921
(dp922
Vkernel-arch
p923
Vs390
p924
sVfeaturesets
p925
(lp926
ss(Vdescription
p927
g5
NV5kc-malta
p928
tp929
(dp930
Vhardware-long
p931
VMIPS Malta boards
p932
sVhardware
p933
VMIPS Malta
p934
ss(Vdescription
p935
g177
NVsparc64-smp
p936
tp937
(dp938
Vhardware
p939
Vmultiprocessor 64-bit UltraSPARC
p940
ss(Vimage
p941
tp942
(dp943
Vtype
p944
Vplain
p945
sVinitramfs-generators
p946
(lp947
Vinitramfs-tools
p948
aVinitramfs-fallback
p949
ass(Vimage
p950
g84
NVocteon
p951
tp952
(dp953
Vconfigs
p954
(lp955
Vkernelarch-mips/config.octeon
p956
ass(g107
g63
g76
tp957
(dp958
g111
(lp959
V4kc-malta
p960
aV5kc-malta
p961
aVloongson-2e
p962
aVloongson-2f
p963
aVloongson-3
p964
asg115
I01
ss(g107
g191
g76
tp965
(dp966
g111
(lp967
Vkirkwood
p968
aVorion5x
p969
aVversatile
p970
asg115
I01
ss(Vdescription
p971
g258
NVsh7751r
p972
tp973
(dp974
Vhardware-long
p975
VRenesas SH7751R R2D plus board
p976
sVhardware
p977
Vsh7751r
p978
ss(Vdescription
p979
g63
NV5kc-malta
p980
tp981
(dp982
Vhardware-long
p983
VMIPS Malta boards (64-bit)
p984
sVhardware
p985
VMIPS Malta (64-bit)
p986
ss(Vbuild
p987
g278
tp988
(dp989
Vimage-file
p990
Varch/s390/boot/image
p991
ss(g107
g360
g76
tp992
(dp993
g111
(lp994
Vm68k
p995
asg115
I01
ss(Vbase
p996
g33
Vrt
p997
tp998
(dp999
Vflavours
p1000
(lp1001
V686-pae
p1002
ass(Vbuild
p1003
g33
tp1004
(dp1005
Vimage-file
p1006
Varch/x86/boot/bzImage
p1007
ss(Vimage
p1008
g165
NVpowerpc-smp
p1009
tp1010
(dp1011
Vconfigs
p1012
(lp1013
Vpowerpc/config.powerpc
p1014
aVpowerpc/config.powerpc-smp
p1015
ass(Vimage
p1016
g108
tp1017
(dp1018
Vinstall-stem
p1019
Vvmlinux
p1020
sVsuggests
p1021
Vpalo
p1022
ss(Vdescription
p1023
g177
NVsparc64
p1024
tp1025
(dp1026
Vhardware
p1027
Vuniprocessor 64-bit UltraSPARC
p1028
ss(Vdescription
p1029
tp1030
(dp1031
Vpart-long-xen
p1032
VThis kernel also runs on a Xen hypervisor.\u000aIt supports both privileged (dom0) and unprivileged (domU) operation.
p1033
sVpart-long-up
p1034
VThis kernel is not suitable for SMP (multi-processor,\u000amulti-core or hyper-threaded) systems.
p1035
ss(Vbase
p1036
NVrt
p1037
tp1038
(dp1039
Venabled
p1040
I00
ss(Vdescription
p1041
g33
NV586
p1042
tp1043
(dp1044
Vparts
p1045
(lp1046
Vup
p1047
asVhardware-long
p1048
VPCs with a single processor not supporting PAE
p1049
sVhardware
p1050
Volder PCs
p1051
ss(Vbuild
p1052
g172
tp1053
(dp1054
Vimage-file
p1055
Varch/x86/boot/bzImage
p1056
sVdebug-info
p1057
I01
ss(Vbuild
p1058
g151
tp1059
(dp1060
Vimage-file
p1061
Varch/arm/boot/zImage
p1062
ss(Vimage
p1063
g78
tp1064
(dp1065
Vinstall-stem
p1066
Vvmlinux
p1067
sVconfigs
p1068
(lp1069
sVsuggests
p1070
Vmkvmlinuz
p1071
ss(Vimage
p1072
g84
tp1073
(dp1074
Vinstall-stem
p1075
Vvmlinux
p1076
ss(Vbuild
p1077
g258
tp1078
(dp1079
Vimage-file
p1080
Varch/sh/boot/zImage
p1081
ss(Vbase
p1082
g177
tp1083
(dp1084
Vkernel-arch
p1085
Vsparc
p1086
sg74
(lp1087
g76
ass(g107
g430
g76
tp1088
(dp1089
g111
(lp1090
Vpowerpc64
p1091
asg115
I01
ss(Vimage
p1092
g45
NVloongson-3
p1093
tp1094
(dp1095
Vconfigs
p1096
(lp1097
Vkernelarch-mips/config.loongson-3
p1098
ass(g107
g278
g76
tp1099
(dp1100
g111
(lp1101
Vs390x
p1102
asg115
I01
ss(Vimage
p1103
g69
tp1104
(dp1105
Vinstall-stem
p1106
Vvmlinuz
p1107
sVsuggests
p1108
Vaboot, fdutils
p1109
ss(Vbase
p1110
g430
tp1111
(dp1112
Vkernel-arch
p1113
Vpowerpc
p1114
sg74
(lp1115
g76
ass(Vdescription
p1116
g84
NVocteon
p1117
tp1118
(dp1119
Vhardware-long
p1120
VCavium Networks Octeon
p1121
sVhardware
p1122
VOcteon
p1123
ss(Vdescription
p1124
g360
NVm68k
p1125
tp1126
(dp1127
Vhardware
p1128
VMotorola MC68020+ family
p1129
ss(Vdescription
p1130
g108
NVparisc64-smp
p1131
tp1132
(dp1133
Vhardware-long
p1134
VHP PA-RISC 64-bit SMP systems with support for more than 4 GB RAM
p1135
sVhardware
p1136
Vmultiprocessor 64-bit PA-RISC
p1137
ss(Vimage
p1138
g33
NV686-pae
p1139
tp1140
(dp1141
Vconfigs
p1142
(lp1143
Vkernelarch-x86/config-arch-32
p1144
aVi386/config.686-pae
p1145
asVrecommends
p1146
Vlibc6-i686
p1147
ss(Vimage
p1148
g27
NVarm64
p1149
tp1150
(dp1151
s(g107
g69
g76
tp1152
(dp1153
g111
(lp1154
Valpha-generic
p1155
aValpha-smp
p1156
asg115
I01
ss(g107
g506
g76
tp1157
(dp1158
g111
(lp1159
Vpowerpcspe
p1160
asg115
I01
ss(g107
g84
g76
tp1161
(dp1162
g111
(lp1163
V4kc-malta
p1164
aV5kc-malta
p1165
aVocteon
p1166
asg115
I01
ss(Vbuild
p1167
g177
tp1168
(dp1169
Vimage-file
p1170
Varch/sparc/boot/zImage
p1171
ss(Vdescription
p1172
g172
NVamd64
p1173
tp1174
(dp1175
Vhardware-long
p1176
VPCs with AMD64, Intel 64 or VIA Nano processors
p1177
sVhardware
p1178
V64-bit PCs
p1179
ss(Vimage
p1180
g63
NV4kc-malta
p1181
tp1182
(dp1183
Vconfigs
p1184
(lp1185
Vkernelarch-mips/config.4kc-malta
p1186
ass(Vbase
p1187
Vor1k
p1188
tp1189
(dp1190
Vkernel-arch
p1191
Vopenrisc
p1192
sVfeaturesets
p1193
(lp1194
ss(Vbase
p1195
g360
tp1196
(dp1197
Vkernel-arch
p1198
Vm68k
p1199
sVcflags
p1200
V-ffreestanding
p1201
sVcompiler
p1202
Vgcc-4.8
p1203
sg74
(lp1204
g76
ass(Vbuild
p1205
g27
tp1206
(dp1207
Vimage-file
p1208
Varch/arm64/boot/Image
p1209
sVdebug-info
p1210
I01
ss(Vimage
p1211
g172
tp1212
(dp1213
Vinstall-stem
p1214
Vvmlinuz
p1215
sVconfigs
p1216
(lp1217
sVbootloaders
p1218
(lp1219
Vgrub-pc
p1220
aVgrub-efi
p1221
aVextlinux
p1222
ass(Vdescription
p1223
g45
NVocteon
p1224
tp1225
(dp1226
Vhardware-long
p1227
VCavium Networks Octeon
p1228
sVhardware
p1229
VOcteon
p1230
sstp1231
Rp1232
.