ccopy_reg
_reconstructor
p0
(cdebian_linux.config
ConfigCore
p1
c__builtin__
dict
p2
(dp3
(S'image'
p4
S'amd64'
p5
NS'amd64'
p6
tp7
(dp8
S'configs'
p9
(lp10
S'kernelarch-x86/config-arch-64'
p11
ass(S'image'
p12
g5
tp13
(dp14
S'install-stem'
p15
S'vmlinuz'
p16
sS'configs'
p17
(lp18
sS'bootloaders'
p19
(lp20
S'grub-pc'
p21
aS'grub-efi'
p22
aS'extlinux'
p23
ass(S'image'
p24
S'mips64el'
p25
NS'loongson-3'
p26
tp27
(dp28
S'configs'
p29
(lp30
S'kernelarch-mips/config.loongson-3'
p31
ass(S'base'
p32
g5
S'none'
p33
tp34
(dp35
S'flavours'
p36
(lp37
S'amd64'
p38
ass(S'image'
p39
S'powerpcspe'
p40
tp41
(dp42
S'suggests'
p43
S'mkvmlinuz'
p44
sS'install-stem'
p45
S'vmlinux'
p46
ss(S'description'
p47
S'armel'
p48
NS'kirkwood'
p49
tp50
(dp51
S'hardware'
p52
S'Marvell Kirkwood'
p53
sS'hardware-long'
p54
S'Marvell Kirkwood based systems (SheevaPlug, QNAP TS-119/TS-219, etc)'
p55
ss(S'image'
p56
S'ia64'
p57
tp58
(dp59
S'suggests'
p60
S'fdutils'
p61
sS'bootloaders'
p62
(lp63
S'elilo'
p64
asS'install-stem'
p65
S'vmlinuz'
p66
ss(S'abi'
p67
S'ppc64el'
p68
tp69
(dp70
S'ignore-changes'
p71
(lp72
S'hibernation_set_ops'
p73
aS'system_entering_hibernation'
p74
ass(S'description'
p75
S's390x'
p76
NS's390x'
p77
tp78
(dp79
S'hardware'
p80
S'IBM zSeries'
p81
ss(S'description'
p82
S'armhf'
p83
NS'armmp'
p84
tp85
(dp86
S'hardware'
p87
S'ARMv7 multiplatform compatible SoCs'
p88
sS'hardware-long'
p89
S'ARMv7 multiplatform kernel. See\nhttps://wiki.debian.org/DebianKernel/ARMMP for details of supported\nplatforms'
p90
ss(S'base'
p91
NS'rt'
p92
tp93
(dp94
S'enabled'
p95
I01
ss(S'version'
p96
tp97
(dp98
S'abiname'
p99
S'4.0.0-2'
p100
sS'source'
p101
V4.0.8-1
p102
sS'abiname_base'
p103
S'4.0.0'
p104
sS'upstream'
p105
S'4.0'
p106
ss(S'description'
p107
S'sparc'
p108
NS'sparc32'
p109
tp110
(dp111
S'hardware'
p112
S'uniprocessor sparc32 (sun4m)'
p113
ss(S'description'
p114
g5
g33
S'amd64'
p115
tp116
(dp117
S'parts'
p118
(lp119
S'xen'
p120
ass(S'base'
p121
S'ppc64'
p122
S'none'
p123
tp124
(dp125
S'implicit-flavour'
p126
I01
sS'flavours'
p127
(lp128
S'powerpc64'
p129
ass(S'description'
p130
S'powerpc'
p131
NS'powerpc-smp'
p132
tp133
(dp134
S'hardware'
p135
S'multiprocessor 32-bit PowerPC'
p136
ss(S'description'
p137
g5
NS'amd64'
p138
tp139
(dp140
S'hardware'
p141
S'64-bit PCs'
p142
sS'hardware-long'
p143
S'PCs with AMD64, Intel 64 or VIA Nano processors'
p144
ss(S'image'
p145
g76
NS's390x'
p146
tp147
(dp148
S'configs'
p149
(lp150
S'kernelarch-s390/config-arch-64'
p151
ass(S'description'
p152
g108
NS'sparc64'
p153
tp154
(dp155
S'hardware'
p156
S'uniprocessor 64-bit UltraSPARC'
p157
ss(S'description'
p158
g108
NS'sparc64-smp'
p159
tp160
(dp161
S'hardware'
p162
S'multiprocessor 64-bit UltraSPARC'
p163
ss(S'base'
p164
S'alpha'
p165
tp166
(dp167
S'kernel-arch'
p168
S'alpha'
p169
sS'featuresets'
p170
(lp171
g123
ass(g121
g83
g123
tp172
(dp173
g126
I01
sg127
(lp174
S'armmp'
p175
aS'armmp-lpae'
p176
ass(S'image'
p177
S'mips'
p178
NS'5kc-malta'
p179
tp180
(dp181
S'configs'
p182
(lp183
S'kernelarch-mips/config.5kc-malta'
p184
ass(S'image'
p185
S'i386'
p186
NS'586'
p187
tp188
(dp189
S'configs'
p190
(lp191
S'kernelarch-x86/config-arch-32'
p192
aS'i386/config.586'
p193
ass(S'description'
p194
g178
NS'r5k-ip32'
p195
tp196
(dp197
S'hardware'
p198
S'SGI IP32'
p199
sS'hardware-long'
p200
S'SGI IP32 systems (O2)'
p201
ss(S'base'
p202
g186
S'rt'
p203
tp204
(dp205
S'flavours'
p206
(lp207
S'686-pae'
p208
ass(S'description'
p209
g57
NS'itanium'
p210
tp211
(dp212
S'hardware'
p213
S'Itanium'
p214
ss(S'image'
p215
g48
NS'orion5x'
p216
tp217
(dp218
S'check-size'
p219
I2097080
sS'check-size-with-dtb'
p220
I01
sS'configs'
p221
(lp222
S'armel/config-reduced'
p223
aS'armel/config.orion5x'
p224
asS'recommends'
p225
S'uboot-mkimage'
p226
ss(S'relations'
p227
g186
tp228
(dp229
S'headers%gcc-4.9'
p230
S'linux-compiler-gcc-4.9-x86'
p231
ss(S'image'
p232
g131
tp233
(dp234
S'suggests'
p235
S'mkvmlinuz'
p236
sS'configs'
p237
(lp238
sS'install-stem'
p239
S'vmlinux'
p240
ss(S'image'
p241
S'sh4'
p242
NS'sh7785lcr'
p243
tp244
(dp245
S'check-size'
p246
I4194304
sS'recommends'
p247
S'uboot-mkimage'
p248
ss(S'description'
p249
NS'rt'
p250
tp251
(dp252
S'part-long-rt'
p253
S'This kernel includes the PREEMPT_RT realtime patch set.'
p254
sS'parts'
p255
(lp256
S'rt'
p257
asS'part-short-rt'
p258
S'PREEMPT_RT'
p259
ss(S'base'
p260
g5
S'rt'
p261
tp262
(dp263
S'flavours'
p264
(lp265
S'amd64'
p266
ass(S'description'
p267
S'sparc64'
p268
NS'sparc64'
p269
tp270
(dp271
S'hardware'
p272
S'uniprocessor 64-bit UltraSPARC'
p273
ss(S'build'
p274
g68
tp275
(dp276
S'image-file'
p277
S'vmlinux'
p278
ss(S'build'
p279
g122
tp280
(dp281
S'image-file'
p282
S'vmlinux'
p283
ss(S'description'
p284
g83
NS'armmp-lpae'
p285
tp286
(dp287
S'hardware'
p288
S'ARMv7 multiplatform compatible SoCs supporting LPAE'
p289
sS'hardware-long'
p290
S'ARMv7 multiplatform kernel supporting LPAE. See\nhttps://wiki.debian.org/DebianKernel/ARMMP for details of supported\nplatforms.'
p291
ss(S'image'
p292
g186
NS'686-pae'
p293
tp294
(dp295
S'configs'
p296
(lp297
S'kernelarch-x86/config-arch-32'
p298
aS'i386/config.686-pae'
p299
asS'recommends'
p300
S'libc6-i686'
p301
ss(S'base'
p302
g186
tp303
(dp304
S'kernel-arch'
p305
S'x86'
p306
sS'featuresets'
p307
(lp308
S'none'
p309
aS'rt'
p310
ass(S'base'
p311
S'mipsel'
p312
tp313
(dp314
S'kernel-arch'
p315
S'mips'
p316
sg170
(lp317
g123
ass(S'description'
p318
g242
NS'sh7751r'
p319
tp320
(dp321
S'hardware'
p322
S'sh7751r'
p323
sS'hardware-long'
p324
S'Renesas SH7751R R2D plus board'
p325
ss(S'relations'
p326
g5
tp327
(dp328
S'headers%gcc-4.9'
p329
S'linux-compiler-gcc-4.9-x86'
p330
ss(S'description'
p331
g312
NS'sb1-bcm91250a'
p332
tp333
(dp334
S'hardware'
p335
S'BCM91250A'
p336
sS'hardware-long'
p337
S'Broadcom BCM91250A systems (aka SWARM)'
p338
ss(S'description'
p339
S'arm64'
p340
NS'arm64'
p341
tp342
(dp343
S'hardware'
p344
S'64-bit ARMv8 machines'
p345
ss(S'description'
p346
g312
NS'5kc-malta'
p347
tp348
(dp349
S'hardware'
p350
S'MIPS Malta (64-bit)'
p351
sS'hardware-long'
p352
S'MIPS Malta boards (64-bit)'
p353
ss(S'image'
p354
g312
NS'5kc-malta'
p355
tp356
(dp357
S'configs'
p358
(lp359
S'kernelarch-mips/config.5kc-malta'
p360
ass(g121
g312
g123
tp361
(dp362
g126
I01
sg127
(lp363
S'sb1-bcm91250a'
p364
aS'4kc-malta'
p365
aS'5kc-malta'
p366
aS'loongson-2e'
p367
aS'loongson-2f'
p368
aS'loongson-3'
p369
ass(S'description'
p370
g178
NS'4kc-malta'
p371
tp372
(dp373
S'hardware'
p374
S'MIPS Malta'
p375
sS'hardware-long'
p376
S'MIPS Malta boards'
p377
ss(S'description'
p378
g40
tp379
(dp380
S'hardware'
p381
S'32-bit PowerPC with SPE (instead of AltiVec) with SMP support'
p382
ss(S'relations'
p383
tp384
(dp385
S'gcc-4.9'
p386
S'gcc-4.9'
p387
sS'gcc-4.8'
p388
S'gcc-4.8'
p389
sS'initramfs-fallback'
p390
S'linux-initramfs-tool'
p391
sS'gcc-4.7'
p392
S'gcc-4.7'
p393
sS'gcc-4.6'
p394
S'gcc-4.6'
p395
sS'initramfs-tools'
p396
S'initramfs-tools (>= 0.110~)'
p397
ss(S'build'
p398
g165
tp399
(dp400
S'image-file'
p401
S'arch/alpha/boot/vmlinux.gz'
p402
ss(S'image'
p403
g83
tp404
(dp405
S'suggests'
p406
S'fdutils'
p407
sS'configs'
p408
(lp409
S'kernelarch-arm/config'
p410
aS'armhf/config'
p411
asS'install-stem'
p412
S'vmlinuz'
p413
ss(S'build'
p414
g40
tp415
(dp416
S'image-file'
p417
S'vmlinux'
p418
ss(S'description'
p419
S'mips64'
p420
NS'5kc-malta'
p421
tp422
(dp423
S'hardware'
p424
S'MIPS Malta'
p425
sS'hardware-long'
p426
S'MIPS Malta boards'
p427
ss(g121
g242
g123
tp428
(dp429
g126
I01
sg127
(lp430
S'sh7751r'
p431
aS'sh7785lcr'
p432
ass(S'build'
p433
S'hppa'
p434
tp435
(dp436
S'image-file'
p437
S'vmlinux'
p438
ss(S'image'
p439
g178
NS'4kc-malta'
p440
tp441
(dp442
S'configs'
p443
(lp444
S'kernelarch-mips/config.4kc-malta'
p445
ass(S'base'
p446
g48
tp447
(dp448
S'kernel-arch'
p449
S'arm'
p450
sg170
(lp451
g123
ass(S'description'
p452
g186
NS'586'
p453
tp454
(dp455
S'hardware'
p456
S'older PCs'
p457
sS'parts'
p458
(lp459
S'up'
p460
asS'hardware-long'
p461
S'PCs with a single processor not supporting PAE'
p462
ss(S'image'
p463
g178
NS'octeon'
p464
tp465
(dp466
S'configs'
p467
(lp468
S'kernelarch-mips/config.octeon'
p469
ass(S'build'
p470
g340
tp471
(dp472
S'debug-info'
p473
I01
sS'image-file'
p474
S'arch/arm64/boot/Image'
p475
ss(S'description'
p476
S'm68k'
p477
NS'm68k'
p478
tp479
(dp480
S'hardware'
p481
S'Motorola MC68020+ family'
p482
ss(S'base'
p483
g108
tp484
(dp485
S'kernel-arch'
p486
S'sparc'
p487
sg170
(lp488
g123
ass(S'image'
p489
g68
NS'powerpc64le'
p490
tp491
(dp492
S'configs'
p493
(lp494
S'kernelarch-powerpc/config-arch-64'
p495
aS'kernelarch-powerpc/config-arch-64-le'
p496
ass(g121
g76
g123
tp497
(dp498
g126
I01
sg127
(lp499
S's390x'
p500
ass(S'base'
p501
g178
tp502
(dp503
S'kernel-arch'
p504
S'mips'
p505
sg170
(lp506
g123
ass(S'build'
p507
g5
tp508
(dp509
S'debug-info'
p510
I01
sS'image-file'
p511
S'arch/x86/boot/bzImage'
p512
ss(S'build'
p513
g108
tp514
(dp515
S'image-file'
p516
S'arch/sparc/boot/zImage'
p517
ss(S'image'
p518
g312
tp519
(dp520
S'install-stem'
p521
S'vmlinux'
p522
ss(S'base'
p523
g434
NS'parisc64-smp'
p524
tp525
(dp526
S'override-host-type'
p527
S'hppa64-linux-gnu'
p528
sS'cflags'
p529
S'-fno-cse-follow-jumps'
p530
ss(S'build'
p531
g131
tp532
(dp533
S'image-file'
p534
S'vmlinux'
p535
ss(S'description'
p536
g131
NS'powerpc'
p537
tp538
(dp539
S'hardware'
p540
S'uniprocessor 32-bit PowerPC'
p541
ss(S'description'
p542
g312
NS'loongson-2f'
p543
tp544
(dp545
S'hardware'
p546
S'Loongson 2F'
p547
sS'hardware-long'
p548
S'Lemote Loongson 2F systems'
p549
ss(S'image'
p550
g420
NS'octeon'
p551
tp552
(dp553
S'configs'
p554
(lp555
S'kernelarch-mips/config.octeon'
p556
ass(S'build'
p557
g312
tp558
(dp559
S'image-file'
p560
S'vmlinux'
p561
ss(S'description'
p562
g25
NS'loongson-3'
p563
tp564
(dp565
S'hardware'
p566
S'Loongson 3A/3B'
p567
sS'hardware-long'
p568
S'Loongson 3A or 3B based systems (e.g. from Loongson or Lemote)'
p569
ss(S'base'
p570
g5
tp571
(dp572
S'kernel-arch'
p573
S'x86'
p574
sS'featuresets'
p575
(lp576
S'none'
p577
aS'rt'
p578
ass(S'base'
p579
g57
tp580
(dp581
S'kernel-arch'
p582
S'ia64'
p583
sg170
(lp584
g123
asS'compiler'
p585
S'gcc-4.6'
p586
ss(S'image'
p587
g83
NS'armmp-lpae'
p588
tp589
(dp590
S'configs'
p591
(lp592
S'armhf/config.armmp'
p593
aS'armhf/config.lpae'
p594
ass(S'description'
p595
g186
NS'686-pae'
p596
tp597
(dp598
S'hardware'
p599
S'modern PCs'
p600
sS'parts'
p601
(lp602
S'pae'
p603
asS'hardware-long'
p604
S'PCs with one or more processors supporting PAE'
p605
ss(S'image'
p606
g178
NS'r4k-ip22'
p607
tp608
(dp609
S'configs'
p610
(lp611
S'kernelarch-mips/config.r4k-ip22'
p612
ass(S'description'
p613
g165
NS'alpha-smp'
p614
tp615
(dp616
S'hardware'
p617
S'Alpha SMP'
p618
sS'hardware-long'
p619
S'DEC Alpha SMP systems with extended kernel start address (Wildfire, Titan, Marvel)'
p620
ss(S'base'
p621
S's390'
p622
tp623
(dp624
S'kernel-arch'
p625
S's390'
p626
sS'featuresets'
p627
(lp628
ss(g121
g48
g123
tp629
(dp630
g126
I01
sg127
(lp631
S'kirkwood'
p632
aS'orion5x'
p633
aS'versatile'
p634
ass(S'image'
p635
g48
NS'kirkwood'
p636
tp637
(dp638
S'check-size'
p639
I2097080
sS'check-size-with-dtb'
p640
I01
sS'breaks'
p641
S'flash-kernel (<< 3.30~)'
p642
sS'recommends'
p643
S'uboot-mkimage'
p644
sS'configs'
p645
(lp646
S'armel/config-reduced'
p647
aS'armel/config.kirkwood'
p648
ass(S'description'
p649
g178
NS'sb1-bcm91250a'
p650
tp651
(dp652
S'hardware'
p653
S'BCM91250A'
p654
sS'hardware-long'
p655
S'Broadcom BCM91250A systems (aka SWARM)'
p656
ss(S'description'
p657
g178
NS'octeon'
p658
tp659
(dp660
S'hardware'
p661
S'Octeon'
p662
sS'hardware-long'
p663
S'Cavium Networks Octeon'
p664
ss(S'description'
p665
g186
tp666
(dp667
S'part-long-pae'
p668
S'This kernel requires PAE (Physical Address Extension).\nThis feature is supported by the Intel Pentium Pro/II/III/4/4M/D, Xeon,\nCore and Atom; AMD Geode NX, Athlon (K7), Duron, Opteron, Sempron,\nTurion or Phenom; Transmeta Efficeon; VIA C7; and some other processors.'
p669
ss(S'description'
p670
g68
NS'powerpc64le'
p671
tp672
(dp673
S'hardware'
p674
S'Little-endian 64-bit PowerPC'
p675
ss(S'build'
p676
g25
tp677
(dp678
S'image-file'
p679
S'vmlinux'
p680
ss(S'xen'
p681
g5
g33
S'amd64'
p682
tp683
(dp684
S'flavours'
p685
(lp686
S'amd64'
p687
ass(S'image'
p688
g48
tp689
(dp690
S'suggests'
p691
S'fdutils'
p692
sS'configs'
p693
(lp694
S'kernelarch-arm/config'
p695
aS'armel/config'
p696
asS'install-stem'
p697
S'vmlinuz'
p698
ss(S'description'
p699
g25
NS'5kc-malta'
p700
tp701
(dp702
S'hardware'
p703
S'MIPS Malta'
p704
sS'hardware-long'
p705
S'MIPS Malta boards'
p706
ss(S'description'
p707
g312
NS'4kc-malta'
p708
tp709
(dp710
S'hardware'
p711
S'MIPS Malta'
p712
sS'hardware-long'
p713
S'MIPS Malta boards'
p714
ss(S'relations'
p715
g48
tp716
(dp717
S'headers%gcc-4.9'
p718
S'linux-compiler-gcc-4.9-arm'
p719
ss(S'image'
p720
g434
tp721
(dp722
S'suggests'
p723
S'palo'
p724
sS'install-stem'
p725
S'vmlinux'
p726
ss(g121
g420
g123
tp727
(dp728
g126
I01
sg127
(lp729
S'sb1-bcm91250a'
p730
aS'5kc-malta'
p731
aS'octeon'
p732
ass(S'relations'
p733
g434
tp734
(dp735
S'gcc-4.9'
p736
S'gcc-4.9, binutils-hppa64, gcc-4.9-hppa64'
p737
ss(g121
g434
g123
tp738
(dp739
g126
I01
sg127
(lp740
S'parisc'
p741
aS'parisc64-smp'
p742
ass(S'description'
p743
g420
NS'octeon'
p744
tp745
(dp746
S'hardware'
p747
S'Octeon'
p748
sS'hardware-long'
p749
S'Cavium Networks Octeon'
p750
ss(S'image'
p751
g165
tp752
(dp753
S'suggests'
p754
S'aboot, fdutils'
p755
sS'install-stem'
p756
S'vmlinuz'
p757
ss(S'base'
p758
g268
tp759
(dp760
S'kernel-arch'
p761
S'sparc'
p762
sg170
(lp763
g123
ass(S'image'
p764
g186
tp765
(dp766
S'install-stem'
p767
S'vmlinuz'
p768
sS'configs'
p769
(lp770
sS'bootloaders'
p771
(lp772
S'grub-pc'
p773
aS'extlinux'
p774
ass(S'base'
p775
S'or1k'
p776
tp777
(dp778
S'kernel-arch'
p779
S'openrisc'
p780
sS'featuresets'
p781
(lp782
ss(S'base'
p783
g76
tp784
(dp785
S'kernel-arch'
p786
S's390'
p787
sg170
(lp788
g123
asS'compiler'
p789
S'gcc-4.8'
p790
ss(S'description'
p791
g434
NS'parisc'
p792
tp793
(dp794
S'hardware'
p795
S'32-bit PA-RISC'
p796
sS'hardware-long'
p797
S'HP PA-RISC 32-bit systems with max 4 GB RAM'
p798
ss(S'image'
p799
g420
NS'sb1-bcm91250a'
p800
tp801
(dp802
S'configs'
p803
(lp804
S'kernelarch-mips/config.sb1-bcm91250a'
p805
ass(S'image'
p806
g131
NS'powerpc-smp'
p807
tp808
(dp809
S'configs'
p810
(lp811
S'powerpc/config.powerpc'
p812
aS'powerpc/config.powerpc-smp'
p813
ass(g121
g25
g123
tp814
(dp815
g126
I01
sg127
(lp816
S'sb1-bcm91250a'
p817
aS'5kc-malta'
p818
aS'loongson-3'
p819
aS'octeon'
p820
ass(S'image'
p821
g122
tp822
(dp823
S'suggests'
p824
S'mkvmlinuz'
p825
sS'configs'
p826
(lp827
sS'install-stem'
p828
S'vmlinux'
p829
ss(S'image'
p830
g178
tp831
(dp832
S'install-stem'
p833
S'vmlinux'
p834
ss(S'image'
p835
g25
NS'octeon'
p836
tp837
(dp838
S'configs'
p839
(lp840
S'kernelarch-mips/config.octeon'
p841
ass(g121
g108
g123
tp842
(dp843
g126
I01
sg127
(lp844
S'sparc64'
p845
aS'sparc64-smp'
p846
ass(S'base'
p847
g122
tp848
(dp849
S'kernel-arch'
p850
S'powerpc'
p851
sg170
(lp852
g123
ass(g121
g178
g123
tp853
(dp854
g126
I01
sg127
(lp855
S'r4k-ip22'
p856
aS'r5k-ip32'
p857
aS'sb1-bcm91250a'
p858
aS'4kc-malta'
p859
aS'5kc-malta'
p860
aS'octeon'
p861
ass(S'description'
p862
g186
S'none'
p863
S'686-pae'
p864
tp865
(dp866
S'parts'
p867
(lp868
S'xen'
p869
ass(g121
g57
g123
tp870
(dp871
g126
I01
sg127
(lp872
S'itanium'
p873
aS'mckinley'
p874
ass(S'base'
p875
g340
S'none'
p876
tp877
(dp878
S'flavours'
p879
(lp880
S'arm64'
p881
ass(S'build'
p882
g76
tp883
(dp884
S'image-file'
p885
S'arch/s390/boot/image'
p886
ss(g121
g165
g123
tp887
(dp888
g126
I01
sg127
(lp889
S'alpha-generic'
p890
aS'alpha-smp'
p891
ass(S'build'
p892
g178
tp893
(dp894
S'image-file'
p895
S'vmlinux'
p896
ss(S'image'
p897
g420
tp898
(dp899
S'install-stem'
p900
S'vmlinux'
p901
ss(S'image'
p902
g25
NS'sb1-bcm91250a'
p903
tp904
(dp905
S'configs'
p906
(lp907
S'kernelarch-mips/config.sb1-bcm91250a'
p908
ass(S'description'
p909
g122
NS'powerpc64'
p910
tp911
(dp912
S'hardware'
p913
S'64-bit PowerPC'
p914
ss(S'base'
p915
S'x32'
p916
tp917
(dp918
S'kernel-arch'
p919
S'x86'
p920
sS'featuresets'
p921
(lp922
ss(S'build'
p923
g242
tp924
(dp925
S'image-file'
p926
S'arch/sh/boot/zImage'
p927
ss(S'image'
p928
g477
tp929
(dp930
S'suggests'
p931
S'vmelilo, fdutils'
p932
sS'install-stem'
p933
S'vmlinuz'
p934
ss(S'description'
p935
g434
NS'parisc64-smp'
p936
tp937
(dp938
S'hardware'
p939
S'multiprocessor 64-bit PA-RISC'
p940
sS'hardware-long'
p941
S'HP PA-RISC 64-bit SMP systems with support for more than 4 GB RAM'
p942
ss(S'image'
p943
g108
NS'sparc32'
p944
tp945
(dp946
S'image-postproc'
p947
S'sparc32-image-postproc'
p948
ss(S'build'
p949
g420
tp950
(dp951
S'image-file'
p952
S'vmlinux'
p953
ss(S'build'
p954
g83
tp955
(dp956
S'image-file'
p957
S'arch/arm/boot/zImage'
p958
ss(S'image'
p959
g268
NS'sparc64'
p960
tp961
(dp962
S'configs'
p963
(lp964
S'kernelarch-sparc/config-up'
p965
ass(S'build'
p966
g57
tp967
(dp968
S'image-file'
p969
S'vmlinux.gz'
p970
ss(S'base'
p971
g83
tp972
(dp973
S'kernel-arch'
p974
S'arm'
p975
sg170
(lp976
g123
ass(S'image'
p977
g242
tp978
(dp979
S'suggests'
p980
S'fdutils'
p981
sS'install-stem'
p982
S'vmlinuz'
p983
ss(S'base'
p984
g420
tp985
(dp986
S'kernel-arch'
p987
S'mips'
p988
sg170
(lp989
g123
ass(S'base'
p990
g434
tp991
(dp992
S'kernel-arch'
p993
S'parisc'
p994
sg170
(lp995
g123
ass(S'image'
p996
g420
NS'5kc-malta'
p997
tp998
(dp999
S'configs'
p1000
(lp1001
S'kernelarch-mips/config.5kc-malta'
p1002
ass(S'base'
p1003
g242
tp1004
(dp1005
S'kernel-arch'
p1006
S'sh'
p1007
sg170
(lp1008
g123
ass(S'description'
p1009
g312
NS'loongson-2e'
p1010
tp1011
(dp1012
S'hardware'
p1013
S'Loongson 2E'
p1014
sS'hardware-long'
p1015
S'Lemote Loongson 2E systems'
p1016
ss(S'image'
p1017
g108
tp1018
(dp1019
S'suggests'
p1020
S'silo, fdutils'
p1021
sS'configs'
p1022
(lp1023
sS'install-stem'
p1024
S'vmlinuz'
p1025
ss(S'description'
p1026
tp1027
(dp1028
S'part-long-up'
p1029
S'This kernel is not suitable for SMP (multi-processor,\nmulti-core or hyper-threaded) systems.'
p1030
sS'part-long-xen'
p1031
S'This kernel also runs on a Xen hypervisor.\nIt supports both privileged (dom0) and unprivileged (domU) operation.'
p1032
ss(S'image'
p1033
g312
NS'loongson-2e'
p1034
tp1035
(dp1036
S'configs'
p1037
(lp1038
S'kernelarch-mips/config.loongson-2e'
p1039
ass(S'build'
p1040
g268
tp1041
(dp1042
S'image-file'
p1043
S'arch/sparc/boot/zImage'
p1044
ss(S'relations'
p1045
g83
tp1046
(dp1047
S'headers%gcc-4.9'
p1048
S'linux-compiler-gcc-4.9-arm'
p1049
ss(S'image'
p1050
g312
NS'loongson-2f'
p1051
tp1052
(dp1053
S'configs'
p1054
(lp1055
S'kernelarch-mips/config.loongson-2f'
p1056
asS'recommends'
p1057
S'libc6-loongson2f'
p1058
ss(S'description'
p1059
g178
NS'5kc-malta'
p1060
tp1061
(dp1062
S'hardware'
p1063
S'MIPS Malta (64-bit)'
p1064
sS'hardware-long'
p1065
S'MIPS Malta boards (64-bit)'
p1066
ss(S'description'
p1067
g131
NS'powerpc64'
p1068
tp1069
(dp1070
S'hardware'
p1071
S'64-bit PowerPC'
p1072
ss(S'image'
p1073
g178
NS'r5k-ip32'
p1074
tp1075
(dp1076
S'configs'
p1077
(lp1078
S'kernelarch-mips/config.r5k-ip32'
p1079
ass(S'image'
p1080
g268
tp1081
(dp1082
S'suggests'
p1083
S'silo, fdutils'
p1084
sS'configs'
p1085
(lp1086
sS'install-stem'
p1087
S'vmlinuz'
p1088
ss(S'relations'
p1089
g76
tp1090
(dp1091
S'headers%gcc-4.8'
p1092
S'linux-compiler-gcc-4.8-s390'
p1093
ss(S'description'
p1094
g57
NS'mckinley'
p1095
tp1096
(dp1097
S'hardware'
p1098
S'Itanium II'
p1099
ss(S'base'
p1100
g131
tp1101
(dp1102
S'kernel-arch'
p1103
S'powerpc'
p1104
sg170
(lp1105
g123
ass(S'image'
p1106
g122
NS'powerpc64'
p1107
tp1108
(dp1109
S'configs'
p1110
(lp1111
S'kernelarch-powerpc/config-arch-64'
p1112
aS'kernelarch-powerpc/config-arch-64-be'
p1113
ass(S'description'
p1114
g25
NS'sb1-bcm91250a'
p1115
tp1116
(dp1117
S'hardware'
p1118
S'BCM91250A'
p1119
sS'hardware-long'
p1120
S'Broadcom BCM91250A systems (aka SWARM)'
p1121
ss(S'image'
p1122
g340
NS'arm64'
p1123
tp1124
(dp1125
s(S'description'
p1126
g25
NS'octeon'
p1127
tp1128
(dp1129
S'hardware'
p1130
S'Octeon'
p1131
sS'hardware-long'
p1132
S'Cavium Networks Octeon'
p1133
ss(S'description'
p1134
g165
NS'alpha-generic'
p1135
tp1136
(dp1137
S'hardware'
p1138
S'Alpha'
p1139
sS'hardware-long'
p1140
S'DEC Alpha systems with extended kernel start address (Wildfire, Titan, Marvel)'
p1141
ss(S'image'
p1142
g68
tp1143
(dp1144
S'suggests'
p1145
S'mkvmlinuz'
p1146
sS'configs'
p1147
(lp1148
sS'install-stem'
p1149
S'vmlinux'
p1150
ss(S'abi'
p1151
tp1152
(dp1153
S'abiname'
p1154
S'2'
p1155
sS'ignore-changes'
p1156
(lp1157
S'module:arch/x86/kvm/kvm'
p1158
aS'module:drivers/usb/host/xhci-hcd'
p1159
aS'bdi_unregister'
p1160
ass(S'image'
p1161
g178
NS'sb1-bcm91250a'
p1162
tp1163
(dp1164
S'configs'
p1165
(lp1166
S'kernelarch-mips/config.sb1-bcm91250a'
p1167
ass(S'base'
p1168
g340
tp1169
(dp1170
S'kernel-arch'
p1171
S'arm64'
p1172
sS'featuresets'
p1173
(lp1174
S'none'
p1175
ass(S'image'
p1176
g268
NS'sparc64-smp'
p1177
tp1178
(dp1179
S'configs'
p1180
(lp1181
S'kernelarch-sparc/config-smp'
p1182
ass(S'image'
p1183
g312
NS'loongson-3'
p1184
tp1185
(dp1186
S'configs'
p1187
(lp1188
S'kernelarch-mips/config.loongson-3'
p1189
ass(S'description'
p1190
g48
NS'versatile'
p1191
tp1192
(dp1193
S'hardware'
p1194
S'Versatile'
p1195
sS'hardware-long'
p1196
S'Versatile systems (PB, AB, Qemu)'
p1197
ss(S'description'
p1198
g312
NS'loongson-3'
p1199
tp1200
(dp1201
S'hardware'
p1202
S'Loongson 3A/3B'
p1203
sS'hardware-long'
p1204
S'Loongson 3A or 3B based systems (e.g. from Loongson or Lemote)'
p1205
ss(g121
g40
g123
tp1206
(dp1207
g126
I01
sg127
(lp1208
S'powerpcspe'
p1209
ass(S'image'
p1210
g312
NS'sb1-bcm91250a'
p1211
tp1212
(dp1213
S'configs'
p1214
(lp1215
S'kernelarch-mips/config.sb1-bcm91250a'
p1216
ass(g121
g477
g123
tp1217
(dp1218
g126
I01
sg127
(lp1219
S'm68k'
p1220
ass(S'base'
p1221
g186
g863
tp1222
(dp1223
S'flavours'
p1224
(lp1225
S'586'
p1226
aS'686-pae'
p1227
ass(S'base'
p1228
tp1229
(dp1230
S'arches'
p1231
(lp1232
S'alpha'
p1233
aS'amd64'
p1234
aS'arm64'
p1235
aS'armel'
p1236
aS'armhf'
p1237
aS'hppa'
p1238
aS'i386'
p1239
aS'ia64'
p1240
aS'm68k'
p1241
aS'mips'
p1242
aS'mipsel'
p1243
aS'mips64'
p1244
aS'mips64el'
p1245
aS'or1k'
p1246
aS'powerpc'
p1247
aS'powerpcspe'
p1248
aS'ppc64'
p1249
aS'ppc64el'
p1250
aS's390'
p1251
aS's390x'
p1252
aS'sh4'
p1253
aS'sparc'
p1254
aS'sparc64'
p1255
aS'x32'
p1256
asS'featuresets'
p1257
(lp1258
S'none'
p1259
aS'rt'
p1260
asS'compiler'
p1261
S'gcc-4.9'
p1262
ss(S'image'
p1263
g108
NS'sparc64'
p1264
tp1265
(dp1266
S'configs'
p1267
(lp1268
S'kernelarch-sparc/config-up'
p1269
ass(S'build'
p1270
g477
tp1271
(dp1272
S'image-file'
p1273
S'vmlinux.gz'
p1274
ss(S'build'
p1275
g48
tp1276
(dp1277
S'image-file'
p1278
S'arch/arm/boot/zImage'
p1279
ss(g121
g131
g123
tp1280
(dp1281
g126
I01
sg127
(lp1282
S'powerpc'
p1283
aS'powerpc-smp'
p1284
aS'powerpc64'
p1285
ass(S'image'
p1286
g25
tp1287
(dp1288
S'install-stem'
p1289
S'vmlinux'
p1290
ss(S'base'
p1291
g68
tp1292
(dp1293
S'kernel-arch'
p1294
S'powerpc'
p1295
sg170
(lp1296
g123
ass(S'base'
p1297
g25
tp1298
(dp1299
S'kernel-arch'
p1300
S'mips'
p1301
sg170
(lp1302
g123
ass(S'base'
p1303
g477
tp1304
(dp1305
S'kernel-arch'
p1306
S'm68k'
p1307
sg170
(lp1308
g123
asS'cflags'
p1309
S'-ffreestanding'
p1310
sS'compiler'
p1311
S'gcc-4.8'
p1312
ss(S'description'
p1313
g178
NS'r4k-ip22'
p1314
tp1315
(dp1316
S'hardware'
p1317
S'SGI IP22'
p1318
sS'hardware-long'
p1319
S'SGI IP22 systems (Indy, Indigo2)'
p1320
ss(S'image'
p1321
tp1322
(dp1323
S'initramfs-generators'
p1324
(lp1325
S'initramfs-tools'
p1326
aS'initramfs-fallback'
p1327
asS'type'
p1328
S'plain'
p1329
ss(S'base'
p1330
g40
tp1331
(dp1332
S'kernel-arch'
p1333
S'powerpc'
p1334
sg170
(lp1335
g123
ass(g121
g268
g123
tp1336
(dp1337
g126
I01
sg127
(lp1338
S'sparc64'
p1339
aS'sparc64-smp'
p1340
ass(S'image'
p1341
g25
NS'5kc-malta'
p1342
tp1343
(dp1344
S'configs'
p1345
(lp1346
S'kernelarch-mips/config.5kc-malta'
p1347
ass(S'description'
p1348
g242
NS'sh7785lcr'
p1349
tp1350
(dp1351
S'hardware'
p1352
S'sh7785lcr'
p1353
sS'hardware-long'
p1354
S'Renesas SH7785 reference board'
p1355
ss(S'image'
p1356
g312
NS'4kc-malta'
p1357
tp1358
(dp1359
S'configs'
p1360
(lp1361
S'kernelarch-mips/config.4kc-malta'
p1362
ass(S'build'
p1363
g186
NS'686-pae'
p1364
tp1365
(dp1366
S'debug-info'
p1367
I01
ss(S'build'
p1368
g76
NS's390x'
p1369
tp1370
(dp1371
S'debug-info'
p1372
I01
ss(S'description'
p1373
g48
NS'orion5x'
p1374
tp1375
(dp1376
S'hardware'
p1377
S'Marvell Orion'
p1378
sS'hardware-long'
p1379
S'Marvell Orion 5181, 5182 and 5281 based systems (QNAP TS-109/TS-209, etc)'
p1380
ss(S'image'
p1381
g76
tp1382
(dp1383
S'install-stem'
p1384
S'vmlinuz'
p1385
sS'configs'
p1386
(lp1387
sS'bootloaders'
p1388
(lp1389
S's390-tools'
p1390
ass(S'image'
p1391
g131
NS'powerpc64'
p1392
tp1393
(dp1394
S'configs'
p1395
(lp1396
S'kernelarch-powerpc/config-arch-64'
p1397
aS'kernelarch-powerpc/config-arch-64-be'
p1398
ass(S'image'
p1399
g340
tp1400
(dp1401
S'install-stem'
p1402
S'vmlinuz'
p1403
ss(S'description'
p1404
g420
NS'sb1-bcm91250a'
p1405
tp1406
(dp1407
S'hardware'
p1408
S'BCM91250A'
p1409
sS'hardware-long'
p1410
S'Broadcom BCM91250A systems (aka SWARM)'
p1411
ss(S'description'
p1412
g268
NS'sparc64-smp'
p1413
tp1414
(dp1415
S'hardware'
p1416
S'multiprocessor 64-bit UltraSPARC'
p1417
ss(S'abi'
p1418
Ng250
tp1419
(dp1420
S'ignore-changes'
p1421
(lp1422
S'*'
p1423
ass(S'image'
p1424
g108
NS'sparc64-smp'
p1425
tp1426
(dp1427
S'configs'
p1428
(lp1429
S'kernelarch-sparc/config-smp'
p1430
ass(S'build'
p1431
g186
tp1432
(dp1433
S'image-file'
p1434
S'arch/x86/boot/bzImage'
p1435
ss(g121
g68
g123
tp1436
(dp1437
g126
I01
sg127
(lp1438
S'powerpc64le'
p1439
asstp1440
Rp1441
.