ccopy_reg
_reconstructor
p0
(cdebian_linux.config
ConfigCore
p1
c__builtin__
dict
p2
(dp3
(S'image'
p4
S'amd64'
p5
tp6
(dp7
S'configs'
p8
(lp9
sS'bootloaders'
p10
(lp11
S'grub-pc'
p12
aS'extlinux'
p13
aS'lilo'
p14
ass(S'description'
p15
S'sparc64'
p16
NS'sparc64'
p17
tp18
(dp19
S'hardware'
p20
S'uniprocessor 64-bit UltraSPARC'
p21
ss(S'base'
p22
g5
S'none'
p23
tp24
(dp25
S'flavours'
p26
(lp27
S'amd64'
p28
ass(S'image'
p29
S'armhf'
p30
NS'armmp-lpae'
p31
tp32
(dp33
S'configs'
p34
(lp35
S'armhf/config.armmp'
p36
aS'armhf/config.lpae'
p37
ass(S'description'
p38
g30
NS'armmp-lpae'
p39
tp40
(dp41
S'hardware'
p42
S'ARMv7 multiplatform compatible SoCs supporting LPAE'
p43
sS'hardware-long'
p44
S'ARMv7 multiplatform kernel supporting LPAE'
p45
ss(S'image'
p46
S'ia64'
p47
tp48
(dp49
S'suggests'
p50
S'fdutils'
p51
sS'bootloaders'
p52
(lp53
S'elilo'
p54
ass(S'version'
p55
tp56
(dp57
S'abiname'
p58
S'3.11-2'
p59
sS'source'
p60
V3.11.10-1
p61
sS'upstream'
p62
S'3.11'
p63
ss(S'description'
p64
g5
g23
S'amd64'
p65
tp66
(dp67
S'parts'
p68
(lp69
S'xen'
p70
ass(S'description'
p71
S'hppa'
p72
NS'parisc64'
p73
tp74
(dp75
S'hardware'
p76
S'64-bit PA-RISC'
p77
ss(S'base'
p78
S'ppc64'
p79
S'none'
p80
tp81
(dp82
S'implicit-flavour'
p83
I01
sS'flavours'
p84
(lp85
S'powerpc64'
p86
ass(S'description'
p87
S'sparc'
p88
NS'sparc32'
p89
tp90
(dp91
S'hardware'
p92
S'uniprocessor sparc32 (sun4m)'
p93
ss(S'description'
p94
S's390'
p95
NS's390'
p96
tp97
(dp98
S'hardware'
p99
S'IBM S/390'
p100
ss(S'description'
p101
S'alpha'
p102
NS'alpha-smp'
p103
tp104
(dp105
S'hardware'
p106
S'Alpha SMP'
p107
sS'hardware-long'
p108
S'DEC Alpha SMP systems with extended kernel start address (Wildfire, Titan, Marvel)'
p109
ss(g78
g30
g80
tp110
(dp111
g83
I01
sg84
(lp112
S'armmp'
p113
aS'armmp-lpae'
p114
ass(S'description'
p115
g72
NS'parisc-smp'
p116
tp117
(dp118
S'hardware'
p119
S'multiprocessor 32-bit PA-RISC'
p120
ss(S'image'
p121
S'i386'
p122
NS'486'
p123
tp124
(dp125
S'configs'
p126
(lp127
S'kernelarch-x86/config-arch-32'
p128
aS'i386/config.486'
p129
ass(S'build'
p130
g5
tp131
(dp132
S'debug-info'
p133
I01
ss(S'base'
p134
g122
S'rt'
p135
tp136
(dp137
S'flavours'
p138
(lp139
S'686-pae'
p140
ass(g78
S'powerpc'
p141
g80
tp142
(dp143
g83
I01
sg84
(lp144
S'powerpc'
p145
aS'powerpc-smp'
p146
aS'powerpc64'
p147
ass(S'description'
p148
S'armel'
p149
NS'ixp4xx'
p150
tp151
(dp152
S'hardware'
p153
S'IXP4xx'
p154
sS'hardware-long'
p155
S'IXP4xx based systems (Linksys NSLU2, etc)'
p156
ss(S'image'
p157
S's390x'
p158
NS's390x'
p159
tp160
(dp161
S'configs'
p162
(lp163
S's390/config.s390x'
p164
ass(S'image'
p165
g141
tp166
(dp167
S'suggests'
p168
S'mkvmlinuz'
p169
ss(S'description'
p170
S'mips'
p171
NS'sb1a-bcm91480b'
p172
tp173
(dp174
S'hardware'
p175
S'BCM91480B'
p176
sS'hardware-long'
p177
S'Broadcom BCM91480B systems (aka BigSur)'
p178
ss(S'base'
p179
g5
S'rt'
p180
tp181
(dp182
S'flavours'
p183
(lp184
S'amd64'
p185
ass(S'description'
p186
g141
NS'powerpc-smp'
p187
tp188
(dp189
S'hardware'
p190
S'multiprocessor 32-bit PowerPC'
p191
ss(S'description'
p192
g122
S'none'
p193
S'amd64'
p194
tp195
(dp196
S'parts'
p197
(lp198
S'xen'
p199
ass(S'description'
p200
S'mipsel'
p201
NS'5kc-malta'
p202
tp203
(dp204
S'hardware'
p205
S'MIPS Malta (64-bit)'
p206
sS'hardware-long'
p207
S'MIPS Malta boards (64-bit)'
p208
ss(S'base'
p209
S'arm64'
p210
tp211
(dp212
S'kernel-arch'
p213
S'arm64'
p214
sS'featuresets'
p215
(lp216
ss(S'image'
p217
g149
NS'ixp4xx'
p218
tp219
(dp220
S'check-size'
p221
S'1441760'
p222
sS'configs'
p223
(lp224
S'armel/config-reduced'
p225
aS'armel/config.ixp4xx'
p226
ass(S'base'
p227
g122
tp228
(dp229
S'kernel-arch'
p230
S'x86'
p231
sS'featuresets'
p232
(lp233
S'none'
p234
aS'rt'
p235
ass(S'image'
p236
g201
NS'5kc-malta'
p237
tp238
(dp239
S'configs'
p240
(lp241
S'mips/config.5kc-malta'
p242
ass(S'base'
p243
g201
tp244
(dp245
S'kernel-arch'
p246
S'mips'
p247
sS'featuresets'
p248
(lp249
g80
ass(S'image'
p250
g122
NS'686-pae'
p251
tp252
(dp253
S'configs'
p254
(lp255
S'kernelarch-x86/config-arch-32'
p256
aS'i386/config.686-pae'
p257
asS'recommends'
p258
S'libc6-i686'
p259
ss(S'image'
p260
g149
NS'iop32x'
p261
tp262
(dp263
S'check-size'
p264
S'1441784'
p265
sS'configs'
p266
(lp267
S'armel/config-reduced'
p268
aS'armel/config.iop32x'
p269
ass(S'build'
p270
g149
NS'mv78xx0'
p271
tp272
(dp273
S'image-file'
p274
S'arch/arm/boot/zImage'
p275
ss(g78
g201
g80
tp276
(dp277
g83
I01
sg84
(lp278
S'r5k-cobalt'
p279
aS'sb1-bcm91250a'
p280
aS'sb1a-bcm91480b'
p281
aS'4kc-malta'
p282
aS'5kc-malta'
p283
aS'loongson-2f'
p284
ass(S'description'
p285
g201
NS'sb1-bcm91250a'
p286
tp287
(dp288
S'hardware'
p289
S'BCM91250A'
p290
sS'hardware-long'
p291
S'Broadcom BCM91250A systems (aka SWARM)'
p292
ss(S'build'
p293
g30
NS'armmp'
p294
tp295
(dp296
S'image-file'
p297
S'arch/arm/boot/zImage'
p298
ss(S'description'
p299
S'powerpcspe'
p300
tp301
(dp302
S'hardware'
p303
S'32-bit PowerPC with SPE (instead of AltiVec) with SMP support'
p304
ss(S'relations'
p305
tp306
(dp307
S'gcc-4.8'
p308
S'gcc-4.8'
p309
sS'initramfs-fallback'
p310
S'linux-initramfs-tool'
p311
sS'gcc-4.7'
p312
S'gcc-4.7'
p313
sS'gcc-4.6'
p314
S'gcc-4.6'
p315
sS'gcc-4.4'
p316
S'gcc-4.4'
p317
sS'initramfs-tools'
p318
S'initramfs-tools (>= 0.110~)'
p319
ss(S'description'
p320
g88
NS'sparc64'
p321
tp322
(dp323
S'hardware'
p324
S'uniprocessor 64-bit UltraSPARC'
p325
ss(S'description'
p326
g122
NS'686-pae'
p327
tp328
(dp329
S'hardware'
p330
S'modern PCs'
p331
sS'parts'
p332
(lp333
S'pae'
p334
asS'hardware-long'
p335
S'PCs with one or more processors supporting PAE'
p336
ss(S'description'
p337
g149
NS'mv78xx0'
p338
tp339
(dp340
S'hardware'
p341
S'Marvell 78xx0'
p342
sS'hardware-long'
p343
S'Marvell DB-78xx0-BP Development Board'
p344
ss(g78
S'sh4'
p345
g80
tp346
(dp347
g83
I01
sg84
(lp348
S'sh7751r'
p349
aS'sh7785lcr'
p350
ass(S'description'
p351
g345
NS'sh7751r'
p352
tp353
(dp354
S'hardware'
p355
S'sh7751r'
p356
sS'hardware-long'
p357
S'Renesas SH7751R R2D plus board'
p358
ss(S'base'
p359
g149
tp360
(dp361
S'kernel-arch'
p362
S'arm'
p363
sg248
(lp364
g80
ass(S'base'
p365
g88
tp366
(dp367
S'kernel-arch'
p368
S'sparc'
p369
sg248
(lp370
g80
ass(S'base'
p371
g300
tp372
(dp373
S'kernel-arch'
p374
S'powerpc'
p375
sg248
(lp376
g80
ass(S'description'
p377
g149
NS'versatile'
p378
tp379
(dp380
S'hardware'
p381
S'Versatile'
p382
sS'hardware-long'
p383
S'Versatile systems (PB, AB, Qemu)'
p384
ss(S'build'
p385
g149
NS'kirkwood'
p386
tp387
(dp388
S'image-file'
p389
S'arch/arm/boot/zImage'
p390
ss(g78
g95
g80
tp391
(dp392
g83
I01
sg84
(lp393
S's390x'
p394
ass(g78
g158
g80
tp395
(dp396
g83
I01
sg84
(lp397
S's390x'
p398
ass(S'base'
p399
g102
tp400
(dp401
S'kernel-arch'
p402
S'alpha'
p403
sg248
(lp404
g80
ass(S'description'
p405
g201
NS'loongson-2f'
p406
tp407
(dp408
S'hardware'
p409
S'Loongson 2F'
p410
sS'hardware-long'
p411
S'Lemote Loongson 2F systems'
p412
ss(S'description'
p413
g171
NS'sb1-bcm91250a'
p414
tp415
(dp416
S'hardware'
p417
S'BCM91250A'
p418
sS'hardware-long'
p419
S'Broadcom BCM91250A systems (aka SWARM)'
p420
ss(S'image'
p421
g201
tp422
(dp423
S'initramfs'
p424
I00
ss(S'description'
p425
g158
NS's390x'
p426
tp427
(dp428
S'hardware'
p429
S'IBM zSeries'
p430
ss(S'base'
p431
g5
tp432
(dp433
S'kernel-arch'
p434
S'x86'
p435
sS'featuresets'
p436
(lp437
S'none'
p438
aS'rt'
p439
ass(S'base'
p440
g47
tp441
(dp442
S'kernel-arch'
p443
S'ia64'
p444
sg248
(lp445
g80
asS'compiler'
p446
S'gcc-4.6'
p447
ss(S'base'
p448
g72
NS'parisc64-smp'
p449
tp450
(dp451
S'override-host-type'
p452
S'hppa64-linux-gnu'
p453
sS'cflags'
p454
S'-fno-cse-follow-jumps'
p455
ss(S'description'
p456
g102
NS'alpha-generic'
p457
tp458
(dp459
S'hardware'
p460
S'Alpha'
p461
sS'hardware-long'
p462
S'DEC Alpha systems with extended kernel start address (Wildfire, Titan, Marvel)'
p463
ss(S'base'
p464
g171
tp465
(dp466
S'kernel-arch'
p467
S'mips'
p468
sg248
(lp469
g80
ass(S'image'
p470
g149
NS'orion5x'
p471
tp472
(dp473
S'check-size'
p474
S'1572792'
p475
sS'configs'
p476
(lp477
S'armel/config-reduced'
p478
aS'armel/config.orion5x'
p479
asS'recommends'
p480
S'uboot-mkimage'
p481
ss(S'base'
p482
g95
tp483
(dp484
S'kernel-arch'
p485
S's390'
p486
sg248
(lp487
g80
ass(g78
g149
g80
tp488
(dp489
g83
I01
sg84
(lp490
S'iop32x'
p491
aS'ixp4xx'
p492
aS'kirkwood'
p493
aS'mv78xx0'
p494
aS'orion5x'
p495
aS'versatile'
p496
ass(S'description'
p497
g149
NS'iop32x'
p498
tp499
(dp500
S'hardware'
p501
S'IOP32x'
p502
sS'hardware-long'
p503
S'IOP32x based systems (Thecus N2100, etc)'
p504
ss(S'base'
p505
NS'rt'
p506
tp507
(dp508
S'enabled'
p509
I00
ss(S'description'
p510
g122
tp511
(dp512
S'part-long-pae'
p513
S'This kernel requires PAE (Physical Address Extension).\nThis feature is supported by the Intel Pentium Pro/II/III/4/4M/D, Xeon,\nCore and Atom; AMD Geode NX, Athlon (K7), Duron, Opteron, Sempron,\nTurion or Phenom; Transmeta Efficeon; VIA C7; and some other processors.'
p514
ss(S'image'
p515
g5
NS'amd64'
p516
tp517
(dp518
S'configs'
p519
(lp520
S'kernelarch-x86/config-arch-64'
p521
ass(S'base'
p522
g122
g193
tp523
(dp524
S'flavours'
p525
(lp526
S'486'
p527
aS'686-pae'
p528
aS'amd64'
p529
ass(S'xen'
p530
g5
g23
S'amd64'
p531
tp532
(dp533
S'flavours'
p534
(lp535
S'amd64'
p536
ass(S'build'
p537
g122
NS'686-pae'
p538
tp539
(dp540
S'debug-info'
p541
I01
ss(S'image'
p542
g149
tp543
(dp544
S'suggests'
p545
S'fdutils'
p546
ss(S'image'
p547
g95
tp548
(dp549
S'bootloaders'
p550
(lp551
S's390-tools'
p552
ass(S'description'
p553
g201
NS'r5k-cobalt'
p554
tp555
(dp556
S'hardware'
p557
S'Cobalt'
p558
sS'hardware-long'
p559
S'Cobalt systems (Qube, RaQ, Qube2, RaQ2)'
p560
ss(S'image'
p561
g72
tp562
(dp563
S'suggests'
p564
S'palo'
p565
ss(S'build'
p566
g149
NS'ixp4xx'
p567
tp568
(dp569
S'image-file'
p570
S'arch/arm/boot/zImage'
p571
ss(S'relations'
p572
g72
tp573
(dp574
S'gcc-4.4'
p575
S'gcc-4.4, binutils-hppa64, gcc-4.4-hppa64'
p576
ss(S'build'
p577
g30
NS'armmp-lpae'
p578
tp579
(dp580
S'image-file'
p581
S'arch/arm/boot/zImage'
p582
ss(S'description'
p583
g171
NS'r4k-ip22'
p584
tp585
(dp586
S'hardware'
p587
S'SGI IP22'
p588
sS'hardware-long'
p589
S'SGI IP22 systems (Indy, Indigo2)'
p590
ss(S'image'
p591
g88
NS'sparc32'
p592
tp593
(dp594
S'image-postproc'
p595
S'sparc32-image-postproc'
p596
ss(S'image'
p597
g122
NS'amd64'
p598
tp599
(dp600
S'configs'
p601
(lp602
S'kernelarch-x86/config-arch-64'
p603
asS'recommends'
p604
S'libc6-i686'
p605
ss(S'build'
p606
g149
NS'orion5x'
p607
tp608
(dp609
S'image-file'
p610
S'arch/arm/boot/zImage'
p611
ss(S'description'
p612
g345
NS'sh7785lcr'
p613
tp614
(dp615
S'hardware'
p616
S'sh7785lcr'
p617
sS'hardware-long'
p618
S'Renesas SH7785 reference board'
p619
ss(S'image'
p620
g16
NS'sparc64'
p621
tp622
(dp623
S'configs'
p624
(lp625
S'sparc/config.sparc64'
p626
ass(g78
g72
g80
tp627
(dp628
g83
I01
sg84
(lp629
S'parisc'
p630
aS'parisc-smp'
p631
aS'parisc64'
p632
aS'parisc64-smp'
p633
ass(S'image'
p634
g102
tp635
(dp636
S'suggests'
p637
S'aboot, fdutils'
p638
ss(S'description'
p639
g95
NS's390x'
p640
tp641
(dp642
S'hardware'
p643
S'IBM zSeries'
p644
ss(S'description'
p645
NS'rt'
p646
tp647
(dp648
S'part-long-rt'
p649
S'This kernel includes the PREEMPT_RT realtime patch set.'
p650
sS'parts'
p651
(lp652
S'rt'
p653
asS'part-short-rt'
p654
S'PREEMPT_RT'
p655
ss(S'base'
p656
g16
tp657
(dp658
S'kernel-arch'
p659
S'sparc'
p660
sg248
(lp661
g80
ass(S'description'
p662
g171
NS'5kc-malta'
p663
tp664
(dp665
S'hardware'
p666
S'MIPS Malta (64-bit)'
p667
sS'hardware-long'
p668
S'MIPS Malta boards (64-bit)'
p669
ss(S'base'
p670
g158
tp671
(dp672
S'kernel-arch'
p673
S's390'
p674
sg248
(lp675
g80
ass(S'abi'
p676
Ng646
tp677
(dp678
S'ignore-changes'
p679
(lp680
S'*'
p681
ass(S'image'
p682
g79
tp683
(dp684
S'suggests'
p685
S'mkvmlinuz'
p686
sS'configs'
p687
(lp688
S'powerpc/config'
p689
ass(S'image'
p690
g171
tp691
(dp692
S'initramfs'
p693
I00
ss(S'image'
p694
g122
tp695
(dp696
S'configs'
p697
(lp698
sS'bootloaders'
p699
(lp700
S'grub-pc'
p701
aS'extlinux'
p702
aS'lilo'
p703
ass(g78
g88
g80
tp704
(dp705
g83
I01
sg84
(lp706
S'sparc64'
p707
aS'sparc64-smp'
p708
ass(S'description'
p709
g72
NS'parisc'
p710
tp711
(dp712
S'hardware'
p713
S'32-bit PA-RISC'
p714
ss(S'base'
p715
g79
tp716
(dp717
S'kernel-arch'
p718
S'powerpc'
p719
sg248
(lp720
g80
ass(g78
g102
g80
tp721
(dp722
g83
I01
sg84
(lp723
S'alpha-generic'
p724
aS'alpha-smp'
p725
aS'alpha-legacy'
p726
ass(S'description'
p727
g122
g193
S'686-pae'
p728
tp729
(dp730
S'parts'
p731
(lp732
S'xen'
p733
ass(g78
g47
g80
tp734
(dp735
g83
I01
sg84
(lp736
S'itanium'
p737
aS'mckinley'
p738
ass(S'build'
p739
g345
NS'sh7785lcr'
p740
tp741
(dp742
S'image-file'
p743
S'arch/sh/boot/zImage'
p744
ss(g78
g171
g80
tp745
(dp746
g83
I01
sg84
(lp747
S'r4k-ip22'
p748
aS'r5k-ip32'
p749
aS'sb1-bcm91250a'
p750
aS'sb1a-bcm91480b'
p751
aS'4kc-malta'
p752
aS'5kc-malta'
p753
aS'octeon'
p754
ass(S'description'
p755
g47
NS'mckinley'
p756
tp757
(dp758
S'hardware'
p759
S'Itanium II'
p760
ss(S'description'
p761
g72
NS'parisc64-smp'
p762
tp763
(dp764
S'hardware'
p765
S'multiprocessor 64-bit PA-RISC'
p766
ss(S'base'
p767
g72
NS'parisc64'
p768
tp769
(dp770
S'override-host-type'
p771
S'hppa64-linux-gnu'
p772
sS'cflags'
p773
S'-fno-cse-follow-jumps'
p774
ss(S'description'
p775
g122
NS'486'
p776
tp777
(dp778
S'hardware'
p779
S'older PCs'
p780
sS'parts'
p781
(lp782
S'up'
p783
asS'hardware-long'
p784
S'PCs with a single processor not supporting PAE'
p785
ss(S'description'
p786
g122
NS'amd64'
p787
tp788
(dp789
S'hardware'
p790
S'64-bit PCs'
p791
sS'parts'
p792
(lp793
S'xen'
p794
asS'hardware-long'
p795
S'PCs with AMD64, Intel 64 or VIA Nano processors'
p796
ss(S'base'
p797
S'x32'
p798
tp799
(dp800
S'kernel-arch'
p801
S'x86'
p802
sS'featuresets'
p803
(lp804
ss(S'image'
p805
S'm68k'
p806
tp807
(dp808
S'suggests'
p809
S'vmelilo, fdutils'
p810
ss(S'image'
p811
g141
NS'powerpc-smp'
p812
tp813
(dp814
S'configs'
p815
(lp816
S'powerpc/config.powerpc'
p817
aS'powerpc/config.powerpc-smp'
p818
ass(S'image'
p819
g149
NS'kirkwood'
p820
tp821
(dp822
S'check-size'
p823
S'2097080'
p824
sS'recommends'
p825
S'uboot-mkimage'
p826
ss(S'description'
p827
g5
NS'amd64'
p828
tp829
(dp830
S'hardware'
p831
S'64-bit PCs'
p832
sS'hardware-long'
p833
S'PCs with AMD64, Intel 64 or VIA Nano processors'
p834
ss(S'base'
p835
g30
tp836
(dp837
S'kernel-arch'
p838
S'arm'
p839
sg248
(lp840
g80
ass(S'image'
p841
g345
tp842
(dp843
S'suggests'
p844
S'fdutils'
p845
ss(S'base'
p846
g72
tp847
(dp848
S'kernel-arch'
p849
S'parisc'
p850
sg248
(lp851
g80
asS'compiler'
p852
S'gcc-4.4'
p853
ss(S'image'
p854
g201
NS'loongson-2f'
p855
tp856
(dp857
S'recommends'
p858
S'libc6-loongson2f'
p859
ss(S'description'
p860
g201
NS'4kc-malta'
p861
tp862
(dp863
S'hardware'
p864
S'MIPS Malta'
p865
sS'hardware-long'
p866
S'MIPS Malta boards'
p867
ss(S'base'
p868
g345
tp869
(dp870
S'kernel-arch'
p871
S'sh'
p872
sg248
(lp873
g80
asS'compiler'
p874
S'gcc-4.7'
p875
ss(S'image'
p876
g88
tp877
(dp878
S'suggests'
p879
S'silo, fdutils'
p880
ss(S'description'
p881
tp882
(dp883
S'part-long-up'
p884
S'This kernel is not suitable for SMP (multi-processor,\nmulti-core or hyper-threaded) systems.'
p885
sS'part-long-xen'
p886
S'This kernel also runs on a Xen hypervisor.\nIt supports both privileged (dom0) and unprivileged (domU) operation.'
p887
ss(S'description'
p888
g171
NS'4kc-malta'
p889
tp890
(dp891
S'hardware'
p892
S'MIPS Malta'
p893
sS'hardware-long'
p894
S'MIPS Malta boards'
p895
ss(S'image'
p896
g201
NS'sb1a-bcm91480b'
p897
tp898
(dp899
S'configs'
p900
(lp901
S'mips/config.sb1a-bcm91480b'
p902
ass(S'description'
p903
g201
NS'sb1a-bcm91480b'
p904
tp905
(dp906
S'hardware'
p907
S'BCM91480B'
p908
sS'hardware-long'
p909
S'Broadcom BCM91480B systems (aka BigSur)'
p910
ss(S'image'
p911
g16
tp912
(dp913
S'suggests'
p914
S'silo, fdutils'
p915
sS'configs'
p916
(lp917
S'sparc/config'
p918
ass(S'description'
p919
g30
NS'armmp'
p920
tp921
(dp922
S'hardware'
p923
S'ARMv7 multiplatform compatible SoCs'
p924
sS'hardware-long'
p925
S'ARMv7 multiplatform kernel for Marvell Armada 370/xp, Freescale iMX5x/iMX6'
p926
ss(S'description'
p927
g171
NS'r5k-ip32'
p928
tp929
(dp930
S'hardware'
p931
S'SGI IP32'
p932
sS'hardware-long'
p933
S'SGI IP32 systems (O2)'
p934
ss(S'description'
p935
g88
NS'sparc64-smp'
p936
tp937
(dp938
S'hardware'
p939
S'multiprocessor 64-bit UltraSPARC'
p940
ss(S'base'
p941
g141
tp942
(dp943
S'kernel-arch'
p944
S'powerpc'
p945
sg248
(lp946
g80
ass(S'build'
p947
g149
NS'iop32x'
p948
tp949
(dp950
S'image-file'
p951
S'arch/arm/boot/zImage'
p952
ss(S'image'
p953
g201
NS'4kc-malta'
p954
tp955
(dp956
S'configs'
p957
(lp958
S'mips/config.4kc-malta'
p959
ass(S'description'
p960
g102
NS'alpha-legacy'
p961
tp962
(dp963
S'hardware'
p964
S'Alpha Legacy'
p965
sS'hardware-long'
p966
S'DEC Alpha systems with legacy kernel start address'
p967
ss(S'description'
p968
g16
NS'sparc64-smp'
p969
tp970
(dp971
S'hardware'
p972
S'multiprocessor 64-bit UltraSPARC'
p973
ss(S'image'
p974
g300
tp975
(dp976
S'suggests'
p977
S'mkvmlinuz'
p978
sS'configs'
p979
(lp980
S'powerpc/config'
p981
aS'powerpcspe/config.powerpcspe'
p982
ass(S'image'
p983
g30
tp984
(dp985
S'suggests'
p986
S'fdutils'
p987
sS'configs'
p988
(lp989
S'armel/config'
p990
aS'armhf/config'
p991
ass(S'abi'
p992
tp993
(dp994
S'abiname'
p995
S'2'
p996
ss(S'description'
p997
g47
NS'itanium'
p998
tp999
(dp1000
S'hardware'
p1001
S'Itanium'
p1002
ss(g78
g300
g80
tp1003
(dp1004
g83
I01
sg84
(lp1005
S'powerpcspe'
p1006
ass(g78
g806
g80
tp1007
(dp1008
g83
I01
sg84
(lp1009
S'm68k'
p1010
ass(S'description'
p1011
g149
NS'orion5x'
p1012
tp1013
(dp1014
S'hardware'
p1015
S'Marvell Orion'
p1016
sS'hardware-long'
p1017
S'Marvell Orion 5181, 5182 and 5281 based systems (QNAP TS-109/TS-209, etc)'
p1018
ss(S'base'
p1019
tp1020
(dp1021
S'arches'
p1022
(lp1023
S'alpha'
p1024
aS'amd64'
p1025
aS'arm64'
p1026
aS'armel'
p1027
aS'armhf'
p1028
aS'hppa'
p1029
aS'i386'
p1030
aS'ia64'
p1031
aS'm68k'
p1032
aS'mips'
p1033
aS'mipsel'
p1034
aS'powerpc'
p1035
aS'powerpcspe'
p1036
aS'ppc64'
p1037
aS's390'
p1038
aS's390x'
p1039
aS'sh4'
p1040
aS'sparc'
p1041
aS'sparc64'
p1042
aS'x32'
p1043
asS'featuresets'
p1044
(lp1045
S'none'
p1046
aS'rt'
p1047
asS'compiler'
p1048
S'gcc-4.8'
p1049
ss(S'image'
p1050
g345
NS'sh7785lcr'
p1051
tp1052
(dp1053
S'check-size'
p1054
S'4194304'
p1055
sS'recommends'
p1056
S'uboot-mkimage'
p1057
ss(S'image'
p1058
g201
NS'sb1-bcm91250a'
p1059
tp1060
(dp1061
S'configs'
p1062
(lp1063
S'mips/config.sb1-bcm91250a'
p1064
ass(S'build'
p1065
g345
NS'sh7751r'
p1066
tp1067
(dp1068
S'image-file'
p1069
S'arch/sh/boot/zImage'
p1070
ss(S'description'
p1071
g141
NS'powerpc64'
p1072
tp1073
(dp1074
S'hardware'
p1075
S'64-bit PowerPC'
p1076
ss(S'image'
p1077
g16
NS'sparc64-smp'
p1078
tp1079
(dp1080
S'configs'
p1081
(lp1082
S'sparc/config.sparc64-smp'
p1083
ass(S'base'
p1084
g806
tp1085
(dp1086
S'kernel-arch'
p1087
S'm68k'
p1088
sg248
(lp1089
g80
asS'cflags'
p1090
S'-ffreestanding'
p1091
sS'compiler'
p1092
S'gcc-4.8'
p1093
ss(S'description'
p1094
g806
NS'm68k'
p1095
tp1096
(dp1097
S'hardware'
p1098
S'Motorola MC68020+ family'
p1099
ss(S'image'
p1100
tp1101
(dp1102
S'initramfs-generators'
p1103
(lp1104
S'initramfs-tools'
p1105
aS'initramfs-fallback'
p1106
asS'type'
p1107
S'plain'
p1108
ss(g78
g16
g80
tp1109
(dp1110
g83
I01
sg84
(lp1111
S'sparc64'
p1112
aS'sparc64-smp'
p1113
ass(S'description'
p1114
g171
NS'octeon'
p1115
tp1116
(dp1117
S'hardware'
p1118
S'Octeon'
p1119
sS'hardware-long'
p1120
S'Cavium Networks Octeon'
p1121
ss(S'image'
p1122
g79
NS'powerpc64'
p1123
tp1124
(dp1125
S'configs'
p1126
(lp1127
S'powerpc/config.powerpc64'
p1128
ass(S'build'
p1129
g95
NS's390x'
p1130
tp1131
(dp1132
S'debug-info'
p1133
I01
ss(S'image'
p1134
g158
tp1135
(dp1136
S'configs'
p1137
(lp1138
S's390/config'
p1139
asS'bootloaders'
p1140
(lp1141
S's390-tools'
p1142
ass(S'description'
p1143
g141
NS'powerpc'
p1144
tp1145
(dp1146
S'hardware'
p1147
S'uniprocessor 32-bit PowerPC'
p1148
ss(S'description'
p1149
g149
NS'kirkwood'
p1150
tp1151
(dp1152
S'hardware'
p1153
S'Marvell Kirkwood'
p1154
sS'hardware-long'
p1155
S'Marvell Kirkwood based systems (SheevaPlug, QNAP TS-119/TS-219, etc)'
p1156
ss(S'build'
p1157
g158
NS's390x'
p1158
tp1159
(dp1160
S'debug-info'
p1161
I01
ss(S'description'
p1162
g79
NS'powerpc64'
p1163
tp1164
(dp1165
S'hardware'
p1166
S'64-bit PowerPC'
p1167
sstp1168
Rp1169
.